"File: mp3_test.c    Assembler  Version HGASM0202      Page 1


   1  0000              ; Generated by holtek-gcc v3.19, Thu Aug 15 10:10:05 2024
   2  0000              ; 
   3  0000              ; Configuration:
   4  0000              ;       with long instruction
   5  0000              ;       Multi-ROM, Multi-RAM
   6  0000              ;       bits_per_rom_unit:16
   7  0000              ;       with mp1
   8  0000              ;       with tbhp, address(0x9)
   9  0000              ;          Use tabrd-const
  10  0000              ;       
  11  0000              ; SFR address of long-instruction arch:
  12  0000              ;    mp0 = -1,1,0
  13  0000              ;    mp1 = 4,3,2
  14  0000              ;    mp2 = 14,13,12
  15  0000              ;    tbp = 9,7,8
  16  0000              ;    acc = 5
  17  0000              ;    pcl = 6
  18  0000              ;    status = 10
  19  0000              ;    bp = 11
  20  0000              ;    intc = 16
  21  0000              ;       
  22  0000              ;       
  23  0000              ; use 'tabrdc' instead of 'tabrd'
  24  0000              ;       
  25  0000              
  26  0000              #pragma translator "holtek-gcc 4.6.4" "3.19" "build 20130711"
  27  0000              ; Rebuild 718
  28  0000              
  29  0000              ir equ [2]
  30  0000              mp equ [3]
  31  0000              sbp equ [4]
  32  0000              acc equ [5]
  33  0000              bp equ [11]
  34  0000              tblp equ [7]
  35  0000              tbhp equ [9]
  36  0000              status equ [10]
  37  0000              c equ [10].0
  38  0000              ac equ [10].1
  39  0000              z equ [10].2
  40  0000              ov equ [10].3
  41  0000              cz equ [10].6
  42  0000              sc equ [10].7
  43  0000              intc equ [16]
  44  0000              mduwr0 equ [59h]
  45  0000              mduwr1 equ [5ah]
  46  0000              mduwr2 equ [5bh]
  47  0000              mduwr3 equ [5ch]
  48  0000              mduwr4 equ [5dh]
  49  0000              mduwr5 equ [5eh]
  50  0000              mduwrctrl equ [5fh]
  51  0000              
  52  0000              extern ra:byte
  53  0000              extern rb:byte
  54  0000              extern rc:byte
  55  0000              extern rd:byte
  56  0000              extern re:byte
  57  0000              extern rf:byte
  58  0000              extern rg:byte
  59  0000              extern rh:byte
"File: mp3_test.ASM  Assembler  Version HGASM0202      Page 2

  60  0000              extern _Crom2Prom:near
  61  0000              extern _Crom2PromNext:near
  62  0000              
  63  0000              RAMBANK 0 @BITDATASEC, @BITDATASEC1
  64  0000              @HCCINIT	.section 'data'
  65  0000              @HCCINIT0	.section 'data'
  66  0000              @BITDATASEC	 .section 'data'
  67  0000              @BITDATASEC1	 .section 'data'
  68  0000              
  69  0000              #pragma debug scope 1 1
  70  0000              	extern __DELAY3:near
  71  0000              	extern __DELAYX3:near
  72  0000              	extern __DELAYX6:near
  73  0000              	extern __DELAYY5:near
  74  0000              	extern __DELAYY3:near
  75  0000              	extern _builtin_holtek_delay_2:byte
  76  0000              ___pg equ [39]
  77  0000              ___mfi0 equ [51]
  78  0000              public _ISR_STM0
  79  0000              #pragma debug scope 2 1

 223  0000              #line 223 "d:\htk\mp3_test\mp3_test.c"
 223  0000              rombank 0 @ISR_STM0_code
 223  0000              @ISR_STM0_code .section at 20 'code'
 223  0000  0080     E  	mov r1,a
 223  0001  070B        	mov a,bp
 223  0002  1F0B        	clr bp
 223  0003  2800     R  	jmp _ISR_STM0
 223  0004              ROMBANK 0 _ISR_STM0
 223  0004              #pragma debug scope 1 1
 223  0004              @dummy20 endp
 223  0004              #pragma debug scope 3 1
 223  0000              _ISR_STM0 .section 'code'
 223  0000              _ISR_STM0 proc
 223  0000  0080     E  	mov r2,a
 223  0001  070A        	mov a, status
 223  0002  0080     E  	mov r3,a
 223  0003  0703        	mov a,mp
 223  0004  0080     E  	mov r4,a
 223  0005  0704        	mov a,sbp
 223  0006  0080     E  	mov r5,a
 223  0007  0707        	mov a,tblp
 223  0008  0080     E  	mov r6,a
 223  0009  0709        	mov a,tbhp
 223  000A  0080     E  	mov r7,a
 224  000B              #line 224 "d:\htk\mp3_test\mp3_test.c"
 224  000B  1500     R  	deca _T100ms_cnt[0]
 224  000C  0080     E  	mov ra,a
 224  000D  0700     E  	mov a,ra
 224  000E  0080     R  	mov _T100ms_cnt[0],a
 224  000F  1080     E  	sz ra
 224  0010  2800     R  	jmp _L2
 226  0011              #line 226 "d:\htk\mp3_test\mp3_test.c"
 226  0011  0F28        	mov a,40
 226  0012  0080     R  	mov _T100ms_cnt[0],a
 227  0013              #line 227 "d:\htk\mp3_test\mp3_test.c"
 227  0013  3000     R  	set _T100ms_flag
 227  0014              _L2:
 229  0014              #line 229 "d:\htk\mp3_test\mp3_test.c"
 229  0014  1500     R  	deca _T250ms_cnt[0]
"File: mp3_test.c    Assembler  Version HGASM0202      Page 3

 229  0015  0080     E  	mov ra,a
 229  0016  0700     E  	mov a,ra
 229  0017  0080     R  	mov _T250ms_cnt[0],a
 229  0018  1080     E  	sz ra
 229  0019  2800     R  	jmp _L3
 231  001A              #line 231 "d:\htk\mp3_test\mp3_test.c"
 231  001A  0F64        	mov a,100
 231  001B  0080     R  	mov _T250ms_cnt[0],a
 232  001C              #line 232 "d:\htk\mp3_test\mp3_test.c"
 232  001C  3000     R  	set _T250ms_flag
 232  001D              _L3:
 234  001D              #line 234 "d:\htk\mp3_test\mp3_test.c"
 234  001D  1500     R  	deca _T500ms_cnt[0]
 234  001E  0080     E  	mov ra,a
 234  001F  0700     E  	mov a,ra
 234  0020  0080     R  	mov _T500ms_cnt[0],a
 234  0021  1080     E  	sz ra
 234  0022  2800     R  	jmp _L4
 236  0023              #line 236 "d:\htk\mp3_test\mp3_test.c"
 236  0023  0FC8        	mov a,200
 236  0024  0080     R  	mov _T500ms_cnt[0],a
 237  0025              #line 237 "d:\htk\mp3_test\mp3_test.c"
 237  0025  3000     R  	set _T500ms_flag
 237  0026              _L4:
 239  0026              #line 239 "d:\htk\mp3_test\mp3_test.c"
 239  0026  0FFF        	mov a,255
 239  0027  0300     R  	add a,_T1s_cnt[0]
 239  0028  0080     E  	mov rb,a
 239  0029  0FFF        	mov a,255
 239  002A  1300     R  	adc a,_T1s_cnt[1]
 239  002B  0080     E  	mov rc,a
 239  002C  0700     E  	mov a,rb
 239  002D  0080     R  	mov _T1s_cnt[0],a
 239  002E  0700     E  	mov a,rc
 239  002F  0080     R  	mov _T1s_cnt[1],a
 239  0030  0700     E  	mov a,rb
 239  0031  0500     E  	or a,rc
 239  0032  390A        	snz z
 239  0033  2800     R  	jmp _L5
 241  0034              #line 241 "d:\htk\mp3_test\mp3_test.c"
 241  0034  0F90        	mov a,-112
 241  0035  0080     R  	mov _T1s_cnt[0],a
 241  0036  0F01        	mov a,1
 241  0037  0080     R  	mov _T1s_cnt[1],a
 242  0038              #line 242 "d:\htk\mp3_test\mp3_test.c"
 242  0038  3000     R  	set _T1s_flag
 242  0039              _L5:
 244  0039              #line 244 "d:\htk\mp3_test\mp3_test.c"
 244  0039  1500     R  	deca _T20ms_cnt[0]
 244  003A  0080     E  	mov ra,a
 244  003B  0700     E  	mov a,ra
 244  003C  0080     R  	mov _T20ms_cnt[0],a
 244  003D  1080     E  	sz ra
 244  003E  2800     R  	jmp _L6
 244  003F              #pragma debug scope 4 3
 244  003F              ;begin block, line: 244.-1
 246  003F              #line 246 "d:\htk\mp3_test\mp3_test.c"
 246  003F  0F08        	mov a,8
 246  0040  0080     R  	mov _T20ms_cnt[0],a
 247  0041              #line 247 "d:\htk\mp3_test\mp3_test.c"
"File: mp3_test.c    Assembler  Version HGASM0202      Page 4

 247  0041  0727        	mov a,[39]
 247  0042  0E0F        	and a,15
 247  0043  0080     E  	mov ra,a
 247  0044  0700     E  	mov a,ra
 247  0045  0080     E  	mov _getkey4_2[0],a
 247  0046  1F00     E  	clr _getkey4_2[1]
 247  0047              	fcall _getkey4
 247  004E  0700     E  	mov a,ra
 247  004F  0080     R  	mov _key[0],a
 247  0050              _L6:
 247  0050              #pragma debug scope 3 1
 252  0050              #line 252 "d:\htk\mp3_test\mp3_test.c"
 252  0050  37B3        	clr [51].7
 252  0051  0700     E  	mov a,r2
 252  0052  008B        	mov bp,a
 252  0053  0700     E  	mov a,r3
 252  0054  008A        	mov status,a
 252  0055  0700     E  	mov a,r4
 252  0056  0083        	mov mp,a
 252  0057  0700     E  	mov a,r5
 252  0058  0084        	mov sbp,a
 252  0059  0700     E  	mov a,r6
 252  005A  0087        	mov tblp,a
 252  005B  0700     E  	mov a,r7
 252  005C  0089        	mov tbhp,a
 252  005D  1D05        	tabrdc acc
 252  005E  0700     E  	mov a,r1
 252  005F  0004        	reti
 252  0060              _ISR_STM0 endp
 252  0060              
 252  0060              #line 252 "d:\htk\mp3_test\mp3_test.c"
 252  0060              #pragma debug scope 1 1
 252  0060              ___txr_rxr1 equ [280]
 252  0060              ___mfi5 equ [56]
 252  0060              public _UART0
 252  0060              #pragma debug scope 5 1
 256  0060              #line 256 "d:\htk\mp3_test\mp3_test.c"
 256  0060              rombank 0 @UART0_code
 256  0000              @UART0_code .section at 60 'code'
 256  0000  0080     E  	mov r1,a
 256  0001  070B        	mov a,bp
 256  0002  1F0B        	clr bp
 256  0003  2800     R  	jmp _UART0
 256  0004              ROMBANK 0 _UART0
 256  0004              #pragma debug scope 1 1
 256  0004              @dummy60 endp
 256  0004              #pragma debug scope 6 1
 256  0000              _UART0 .section 'code'
 256  0000              _UART0 proc
 256  0000  0080     E  	mov r2,a
 256  0001  070A        	mov a, status
 256  0002  0080     E  	mov r3,a
 256  0003  0703        	mov a,mp
 256  0004  0080     E  	mov r4,a
 256  0005  0704        	mov a,sbp
 256  0006  0080     E  	mov r5,a
 258  0007              #line 258 "d:\htk\mp3_test\mp3_test.c"
 258  0007  0700     R  	mov a,_bt_ind[0]
 258  0008  0080     E  	mov ra,a
 258  0009  1400     E  	inca ra
"File: mp3_test.c    Assembler  Version HGASM0202      Page 5

 258  000A  0080     R  	mov _bt_ind[0],a
 258  000B  0F00     R  	mov a,low offset _bt_data
 258  000C  0300     E  	add a,ra
 258  000D  0083        	mov mp,a
 258  000E  0F00     R  	mov a,high offset _bt_data
 258  000F  1F04        	clr sbp
 258  0010  1384        	adcm a,sbp
 258  0011  8718 0001   	lmov a,[280]
 258  0013  0082        	mov ir,a
 259  0014              #line 259 "d:\htk\mp3_test\mp3_test.c"
 259  0014  8718 0001   	lmov a,[280]
 259  0016  0A0A        	sub a,10
 259  0017  390A        	snz z
 259  0018  2800     R  	jmp _L9
 261  0019              #line 261 "d:\htk\mp3_test\mp3_test.c"
 261  0019  3000     R  	set _fgRx
 262  001A              #line 262 "d:\htk\mp3_test\mp3_test.c"
 262  001A  0F00     R  	mov a,low offset _bt_data
 262  001B  0300     R  	add a,_bt_ind[0]
 262  001C  0083        	mov mp,a
 262  001D  0F00     R  	mov a,high offset _bt_data
 262  001E  1F04        	clr sbp
 262  001F  1384        	adcm a,sbp
 262  0020  0F00        	mov a,0
 262  0021  0082        	mov ir,a
 263  0022              #line 263 "d:\htk\mp3_test\mp3_test.c"
 263  0022  1F00     R  	clr _bt_ind[0]
 263  0023              _L9:
 265  0023              #line 265 "d:\htk\mp3_test\mp3_test.c"
 265  0023  36B8        	clr [56].5
 265  0024  0700     E  	mov a,r2
 265  0025  008B        	mov bp,a
 265  0026  0700     E  	mov a,r3
 265  0027  008A        	mov status,a
 265  0028  0700     E  	mov a,r4
 265  0029  0083        	mov mp,a
 265  002A  0700     E  	mov a,r5
 265  002B  0084        	mov sbp,a
 265  002C  0700     E  	mov a,r1
 265  002D  0004        	reti
 265  002E              _UART0 endp
 265  002E              
 265  002E              #line 265 "d:\htk\mp3_test\mp3_test.c"
 265  002E              #pragma debug scope 1 1
 265  002E              ___txr_rxr0 equ [275]
 265  002E              ___u0sr equ [272]
 265  002E              public _UART0_Putch
 265  002E              #pragma debug scope 7 1
 358  002E              #line 358 "d:\htk\mp3_test\mp3_test.c"
 358  0000              _UART0_Putch .section 'code'
 358  0000              _UART0_Putch proc
 358  0000  00              local _UART0_Putch_2 db 1 dup(?)	; 0,1
 358  0000  0080     E  	mov ra,a
 358  0001  0080     R  	mov _UART0_Putch_2[0],a
 358  0002              #pragma debug variable 7 7 _UART0_Putch_2+0 "UART_DATA"
 359  0002              #line 359 "d:\htk\mp3_test\mp3_test.c"
 359  0002  0700     E  	mov a,ra
 359  0003  8093 0001   	lmov [275],a
 359  0005              _L12:
 360  0005              #line 360 "d:\htk\mp3_test\mp3_test.c"
"File: mp3_test.c    Assembler  Version HGASM0202      Page 6

 360  0005  B810 0001   	lsnz [272].0
 360  0007  2800     R  	jmp _L12
 360  0008  0003        	ret
 360  0009              _UART0_Putch endp
 360  0009              #line 360 "d:\htk\mp3_test\mp3_test.c"
 360  0009              #pragma debug scope 1 1
 360  0009              ___u1sr equ [277]
 360  0009              public _UART1_Putch
 360  0009              #pragma debug scope 8 1
 365  0009              #line 365 "d:\htk\mp3_test\mp3_test.c"
 365  0000              _UART1_Putch .section 'code'
 365  0000              _UART1_Putch proc
 365  0000  00              local _UART1_Putch_2 db 1 dup(?)	; 0,1
 365  0000  0080     E  	mov ra,a
 365  0001  0080     R  	mov _UART1_Putch_2[0],a
 365  0002              #pragma debug variable 7 8 _UART1_Putch_2+0 "UART_DATA"
 366  0002              #line 366 "d:\htk\mp3_test\mp3_test.c"
 366  0002  0700     E  	mov a,ra
 366  0003  8098 0001   	lmov [280],a
 366  0005              _L15:
 367  0005              #line 367 "d:\htk\mp3_test\mp3_test.c"
 367  0005  B815 0001   	lsnz [277].0
 367  0007  2800     R  	jmp _L15
 367  0008  0003        	ret
 367  0009              _UART1_Putch endp
 367  0009              #line 367 "d:\htk\mp3_test\mp3_test.c"
 367  0009              #pragma debug scope 1 1
 367  0009              public _UART0_Getch
 367  0009              #pragma debug scope 9 1
 374  0009              #line 374 "d:\htk\mp3_test\mp3_test.c"
 374  0000              _UART0_Getch .section 'code'
 374  0000              _UART0_Getch proc
 374  0000              _L18:
 376  0000              #line 376 "d:\htk\mp3_test\mp3_test.c"
 376  0000  BD90 0001   	lsz [272].3
 376  0002  2800     R  	jmp _L18
 376  0003              _L20:
 377  0003              #line 377 "d:\htk\mp3_test\mp3_test.c"
 377  0003  B910 0001   	lsnz [272].2
 377  0005  2800     R  	jmp _L20
 379  0006              #line 379 "d:\htk\mp3_test\mp3_test.c"
 379  0006  8713 0001   	lmov a,[275]
 379  0008  0080     E  	mov ra,a
 382  0009              #line 382 "d:\htk\mp3_test\mp3_test.c"
 382  0009  0700     E  	mov a,ra
 382  000A  0003        	ret
 382  000B              _UART0_Getch endp
 382  000B              #line 382 "d:\htk\mp3_test\mp3_test.c"
 382  000B              #pragma debug scope 1 1
 382  000B              public _execute_CMD
 382  000B              #pragma debug scope 10 1
 313  000B              #line 313 "d:\htk\mp3_test\mp3_test.c"
 313  0000              _execute_CMD .section 'code'
 313  0000              _execute_CMD proc
 313  0000              public _execute_CMD_2
 313  0000  0006[           local _execute_CMD_2 db 6 dup(?)	; 3,3
            00
            ]
 313  0000  0080     E  	mov ra,a
 313  0001  0080     R  	mov _execute_CMD_2[3],a
"File: mp3_test.c    Assembler  Version HGASM0202      Page 7

 313  0002              #pragma debug variable 8 10 _execute_CMD_2+3 "CMD"
 313  0002              #pragma debug variable 8 10 _execute_CMD_2+0 "Par1"
 313  0002              #pragma debug variable 8 10 _execute_CMD_2+1 "Par2"
 313  0002              #pragma debug variable 8 10 _execute_CMD_2+2 "mode"
 317  0002              #line 317 "d:\htk\mp3_test\mp3_test.c"
 317  0002  0F7E        	mov a,126
 317  0003  0080     R  	mov _Command_line[0],a
 318  0004              #line 318 "d:\htk\mp3_test\mp3_test.c"
 318  0004  1F80     R  	set _Command_line[1]
 319  0005              #line 319 "d:\htk\mp3_test\mp3_test.c"
 319  0005  0F06        	mov a,6
 319  0006  0080     R  	mov _Command_line[2],a
 320  0007              #line 320 "d:\htk\mp3_test\mp3_test.c"
 320  0007  0700     E  	mov a,ra
 320  0008  0080     R  	mov _Command_line[3],a
 321  0009              #line 321 "d:\htk\mp3_test\mp3_test.c"
 321  0009  1F00     R  	clr _Command_line[4]
 322  000A              #line 322 "d:\htk\mp3_test\mp3_test.c"
 322  000A  0700     R  	mov a,_execute_CMD_2[0]
 322  000B  0080     R  	mov _Command_line[5],a
 323  000C              #line 323 "d:\htk\mp3_test\mp3_test.c"
 323  000C  0700     R  	mov a,_execute_CMD_2[1]
 323  000D  0080     R  	mov _Command_line[6],a
 323  000E  0F06        	mov a,6
 323  000F  0080     E  	mov ra,a
 315  0010              #line 315 "d:\htk\mp3_test\mp3_test.c"
 315  0010  1F00     E  	clr rb
 315  0011  1F00     E  	clr rc
 326  0012              #line 326 "d:\htk\mp3_test\mp3_test.c"
 326  0012  0F01        	mov a,1
 326  0013  0080     E  	mov rd,a
 326  0014              _L24:
 328  0014              #line 328 "d:\htk\mp3_test\mp3_test.c"
 328  0014  0F00     R  	mov a,low offset _Command_line
 328  0015  0300     E  	add a,rd
 328  0016  0083        	mov mp,a
 328  0017  0F00     R  	mov a,high offset _Command_line
 328  0018  1F04        	clr sbp
 328  0019  1384        	adcm a,sbp
 328  001A              	fcall _Crom2Prom
 328  0021  0080     E  	mov re,a
 328  0022  0700     E  	mov a,re
 328  0023  0380     E  	addm a,rb
 328  0024  3C0A        	sz c
 328  0025  1480     E  	inc rc
 326  0026              #line 326 "d:\htk\mp3_test\mp3_test.c"
 326  0026  1480     E  	inc rd
 326  0027  1780     E  	sdz ra
 326  0028  2800     R  	jmp _L24
 330  0029              #line 330 "d:\htk\mp3_test\mp3_test.c"
 330  0029  0F00        	mov a,0
 330  002A  0280     E  	subm a,rb
 330  002B  0F00        	mov a,0
 330  002C  1280     E  	sbcm a,rc
 333  002D              #line 333 "d:\htk\mp3_test\mp3_test.c"
 333  002D  0700     E  	mov a,rc
 333  002E  0080     R  	mov _Command_line[7],a
 334  002F              #line 334 "d:\htk\mp3_test\mp3_test.c"
 334  002F  0700     E  	mov a,rb
 334  0030  0080     R  	mov _Command_line[8],a
"File: mp3_test.c    Assembler  Version HGASM0202      Page 8

 335  0031              #line 335 "d:\htk\mp3_test\mp3_test.c"
 335  0031  0FEF        	mov a,239
 335  0032  0080     R  	mov _Command_line[9],a
 335  0033  0F0A        	mov a,10
 335  0034  0080     R  	mov _execute_CMD_2[4],a
 337  0035              #line 337 "d:\htk\mp3_test\mp3_test.c"
 337  0035  1F00     R  	clr _execute_CMD_2[5]
 337  0036              _L26:
 339  0036              #line 339 "d:\htk\mp3_test\mp3_test.c"
 339  0036  0F00     R  	mov a,low offset _Command_line
 339  0037  0300     R  	add a,_execute_CMD_2[5]
 339  0038  0083        	mov mp,a
 339  0039  0F00     R  	mov a,high offset _Command_line
 339  003A  1F04        	clr sbp
 339  003B  1384        	adcm a,sbp
 339  003C              	fcall _Crom2Prom
 339  0043              	fcall _UART0_Putch
 337  004A              #line 337 "d:\htk\mp3_test\mp3_test.c"
 337  004A  1480     R  	inc _execute_CMD_2[5]
 337  004B  1780     R  	sdz _execute_CMD_2[4]
 337  004C  2800     R  	jmp _L26
 342  004D              #line 342 "d:\htk\mp3_test\mp3_test.c"
 342  004D  1700     R  	sdza _execute_CMD_2[2]
 342  004E  2800     R  	jmp _L22
 342  004F              _L29:
 342  004F              #pragma debug scope 11 10
 342  004F              ;begin block, line: 342.-1
 342  004F              #pragma debug scope 12 11
 342  004F              ;begin block, line: 342.-1
 342  004F              #pragma debug scope 13 12
 342  004F              ;begin block, line: 342.-1
 347  004F              #line 347 "d:\htk\mp3_test\mp3_test.c"
 347  004F              	fcall _UART0_Getch
 347  0056  0080     E  	mov ra,a
 348  0057              #line 348 "d:\htk\mp3_test\mp3_test.c"
 348  0057  0700     R  	mov a,_RxDataLN[0]
 348  0058  0080     E  	mov rb,a
 348  0059  1400     E  	inca rb
 348  005A  0080     R  	mov _RxDataLN[0],a
 348  005B  0F00     R  	mov a,low offset _RxData
 348  005C  0300     E  	add a,rb
 348  005D  0083        	mov mp,a
 348  005E  0F00     R  	mov a,high offset _RxData
 348  005F  1F04        	clr sbp
 348  0060  1384        	adcm a,sbp
 348  0061  0700     E  	mov a,ra
 348  0062  0082        	mov ir,a
 349  0063              #line 349 "d:\htk\mp3_test\mp3_test.c"
 349  0063  0700     E  	mov a,ra
 349  0064  0AEF        	sub a,239
 349  0065  390A        	snz z
 349  0066  2800     R  	jmp _L29
 354  0067              #line 354 "d:\htk\mp3_test\mp3_test.c"
 354  0067  1F00     R  	clr _RxDataLN[0]
 354  0068              _L22:
 354  0068              #pragma debug scope 12 11
 354  0068              #pragma debug scope 11 10
 354  0068              #pragma debug scope 10 1
 354  0068  0003        	ret
 354  0069              _execute_CMD endp
"File: mp3_test.c    Assembler  Version HGASM0202      Page 9

 354  0069              #line 354 "d:\htk\mp3_test\mp3_test.c"
 354  0069              #pragma debug scope 1 1
 354  0069              public _pause
 354  0069              #pragma debug scope 14 1
 273  0069              #line 273 "d:\htk\mp3_test\mp3_test.c"
 273  0000              _pause .section 'code'
 273  0000              _pause proc
 274  0000              #line 274 "d:\htk\mp3_test\mp3_test.c"
 274  0000  1F00     R  	clr _execute_CMD_2[2]
 274  0001  1F00     R  	clr _execute_CMD_2[1]
 274  0002  1F00     R  	clr _execute_CMD_2[0]
 274  0003  0F0E        	mov a,14
 274  0004              	fcall _execute_CMD
 275  000B              #line 275 "d:\htk\mp3_test\mp3_test.c"
 275  000B  0FF4        	mov a,-12
 275  000C  0080     E  	mov _delay_ms_2[0],a
 275  000D  0F01        	mov a,1
 275  000E  0080     E  	mov _delay_ms_2[1],a
 275  000F              	fcall _delay_ms
 275  0016  0003        	ret
 275  0017              _pause endp
 275  0017              #line 275 "d:\htk\mp3_test\mp3_test.c"
 275  0017              #pragma debug scope 1 1
 275  0017              public _play
 275  0017              #pragma debug scope 15 1
 278  0017              #line 278 "d:\htk\mp3_test\mp3_test.c"
 278  0000              _play .section 'code'
 278  0000              _play proc
 279  0000              #line 279 "d:\htk\mp3_test\mp3_test.c"
 279  0000  1F00     R  	clr _execute_CMD_2[2]
 279  0001  1F00     R  	clr _execute_CMD_2[1]
 279  0002  1F00     R  	clr _execute_CMD_2[0]
 279  0003  0F0D        	mov a,13
 279  0004              	fcall _execute_CMD
 280  000B              #line 280 "d:\htk\mp3_test\mp3_test.c"
 280  000B  0FF4        	mov a,-12
 280  000C  0080     E  	mov _delay_ms_2[0],a
 280  000D  0F01        	mov a,1
 280  000E  0080     E  	mov _delay_ms_2[1],a
 280  000F              	fcall _delay_ms
 280  0016  0003        	ret
 280  0017              _play endp
 280  0017              #line 280 "d:\htk\mp3_test\mp3_test.c"
 280  0017              #pragma debug scope 1 1
 280  0017              public _playNext
 280  0017              #pragma debug scope 16 1
 283  0017              #line 283 "d:\htk\mp3_test\mp3_test.c"
 283  0000              _playNext .section 'code'
 283  0000              _playNext proc
 284  0000              #line 284 "d:\htk\mp3_test\mp3_test.c"
 284  0000  1F00     R  	clr _execute_CMD_2[2]
 284  0001  0F01        	mov a,1
 284  0002  0080     R  	mov _execute_CMD_2[1],a
 284  0003  1F00     R  	clr _execute_CMD_2[0]
 284  0004  0F01        	mov a,1
 284  0005              	fcall _execute_CMD
 285  000C              #line 285 "d:\htk\mp3_test\mp3_test.c"
 285  000C  0FF4        	mov a,-12
 285  000D  0080     E  	mov _delay_ms_2[0],a
 285  000E  0F01        	mov a,1
"File: mp3_test.c    Assembler  Version HGASM0202      Page 10

 285  000F  0080     E  	mov _delay_ms_2[1],a
 285  0010              	fcall _delay_ms
 285  0017  0003        	ret
 285  0018              _playNext endp
 285  0018              #line 285 "d:\htk\mp3_test\mp3_test.c"
 285  0018              #pragma debug scope 1 1
 285  0018              public _playPrevious
 285  0018              #pragma debug scope 17 1
 289  0018              #line 289 "d:\htk\mp3_test\mp3_test.c"
 289  0000              _playPrevious .section 'code'
 289  0000              _playPrevious proc
 290  0000              #line 290 "d:\htk\mp3_test\mp3_test.c"
 290  0000  1F00     R  	clr _execute_CMD_2[2]
 290  0001  0F01        	mov a,1
 290  0002  0080     R  	mov _execute_CMD_2[1],a
 290  0003  1F00     R  	clr _execute_CMD_2[0]
 290  0004  0F02        	mov a,2
 290  0005              	fcall _execute_CMD
 291  000C              #line 291 "d:\htk\mp3_test\mp3_test.c"
 291  000C  0FF4        	mov a,-12
 291  000D  0080     E  	mov _delay_ms_2[0],a
 291  000E  0F01        	mov a,1
 291  000F  0080     E  	mov _delay_ms_2[1],a
 291  0010              	fcall _delay_ms
 291  0017  0003        	ret
 291  0018              _playPrevious endp
 291  0018              #line 291 "d:\htk\mp3_test\mp3_test.c"
 291  0018              #pragma debug scope 1 1
 291  0018              public _voiceup
 291  0018              #pragma debug scope 18 1
 295  0018              #line 295 "d:\htk\mp3_test\mp3_test.c"
 295  0000              _voiceup .section 'code'
 295  0000              _voiceup proc
 296  0000              #line 296 "d:\htk\mp3_test\mp3_test.c"
 296  0000  1F00     R  	clr _execute_CMD_2[2]
 296  0001  0F01        	mov a,1
 296  0002  0080     R  	mov _execute_CMD_2[1],a
 296  0003  1F00     R  	clr _execute_CMD_2[0]
 296  0004  0F04        	mov a,4
 296  0005              	fcall _execute_CMD
 297  000C              #line 297 "d:\htk\mp3_test\mp3_test.c"
 297  000C  0FF4        	mov a,-12
 297  000D  0080     E  	mov _delay_ms_2[0],a
 297  000E  0F01        	mov a,1
 297  000F  0080     E  	mov _delay_ms_2[1],a
 297  0010              	fcall _delay_ms
 297  0017  0003        	ret
 297  0018              _voiceup endp
 297  0018              #line 297 "d:\htk\mp3_test\mp3_test.c"
 297  0018              #pragma debug scope 1 1
 297  0018              public _voicedown
 297  0018              #pragma debug scope 19 1
 301  0018              #line 301 "d:\htk\mp3_test\mp3_test.c"
 301  0000              _voicedown .section 'code'
 301  0000              _voicedown proc
 302  0000              #line 302 "d:\htk\mp3_test\mp3_test.c"
 302  0000  1F00     R  	clr _execute_CMD_2[2]
 302  0001  0F01        	mov a,1
 302  0002  0080     R  	mov _execute_CMD_2[1],a
 302  0003  1F00     R  	clr _execute_CMD_2[0]
"File: mp3_test.c    Assembler  Version HGASM0202      Page 11

 302  0004  0F05        	mov a,5
 302  0005              	fcall _execute_CMD
 303  000C              #line 303 "d:\htk\mp3_test\mp3_test.c"
 303  000C  0FF4        	mov a,-12
 303  000D  0080     E  	mov _delay_ms_2[0],a
 303  000E  0F01        	mov a,1
 303  000F  0080     E  	mov _delay_ms_2[1],a
 303  0010              	fcall _delay_ms
 303  0017  0003        	ret
 303  0018              _voicedown endp
 303  0018              #line 303 "d:\htk\mp3_test\mp3_test.c"
 303  0018              #pragma debug scope 1 1
 303  0018              public _setVolume
 303  0018              #pragma debug scope 20 1
 307  0018              #line 307 "d:\htk\mp3_test\mp3_test.c"
 307  0000              _setVolume .section 'code'
 307  0000              _setVolume proc
 307  0000              public _setVolume_2
 307  0000  0002[           local _setVolume_2 db 2 dup(?)	; 2,0
            00
            ]
 307  0002              #pragma debug variable 11 20 _setVolume_2+0 "volume"
 308  0002              #line 308 "d:\htk\mp3_test\mp3_test.c"
 308  0000  1F00     R  	clr _execute_CMD_2[2]
 308  0001  0700     R  	mov a,_setVolume_2[0]
 308  0002  0080     R  	mov _execute_CMD_2[1],a
 308  0003  1F00     R  	clr _execute_CMD_2[0]
 308  0004  0F06        	mov a,6
 308  0005              	fcall _execute_CMD
 309  000C              #line 309 "d:\htk\mp3_test\mp3_test.c"
 309  000C  0FF4        	mov a,-12
 309  000D  0080     E  	mov _delay_ms_2[0],a
 309  000E  0F01        	mov a,1
 309  000F  0080     E  	mov _delay_ms_2[1],a
 309  0010              	fcall _delay_ms
 309  0017  0003        	ret
 309  0018              _setVolume endp
 309  0018              #line 309 "d:\htk\mp3_test\mp3_test.c"
 309  0018              #pragma debug scope 1 1
 309  0018              public _playFirst
 309  0018              #pragma debug scope 21 1
 268  0018              #line 268 "d:\htk\mp3_test\mp3_test.c"
 268  0000              _playFirst .section 'code'
 268  0000              _playFirst proc
 269  0000              #line 269 "d:\htk\mp3_test\mp3_test.c"
 269  0000  0F0F        	mov a,15
 269  0001  0080     R  	mov _setVolume_2[0],a
 269  0002  1F00     R  	clr _setVolume_2[1]
 269  0003              	fcall _setVolume
 270  000A              #line 270 "d:\htk\mp3_test\mp3_test.c"
 270  000A  0FF4        	mov a,-12
 270  000B  0080     E  	mov _delay_ms_2[0],a
 270  000C  0F01        	mov a,1
 270  000D  0080     E  	mov _delay_ms_2[1],a
 270  000E              	fcall _delay_ms
 270  0015  0003        	ret
 270  0016              _playFirst endp
 270  0016              #line 270 "d:\htk\mp3_test\mp3_test.c"
 270  0016              #pragma debug scope 1 1
 270  0016              ___wdtc equ [62]
"File: mp3_test.c    Assembler  Version HGASM0202      Page 12

 270  0016              ___pfc equ [37]
 270  0016              ___pdc equ [31]
 270  0016              ___pas1 equ [334]
 270  0016              ___u0cr1 equ [273]
 270  0016              ___u0cr2 equ [274]
 270  0016              ___pds0 equ [339]
 270  0016              ___u1cr1 equ [278]
 270  0016              ___u1cr2 equ [279]
 270  0016              ___brg0 equ [276]
 270  0016              ___brg1 equ [281]
 270  0016              ___intc3 equ [19]
 270  0016              ___stm0c0 equ [78]
 270  0016              ___stm0c1 equ [79]
 270  0016              ___stm0ah equ [83]
 270  0016              ___stm0al equ [82]
 270  0016              ___intc1 equ [17]
 270  0016              ___intc0 equ [16]
 270  0016              public _main
 270  0016              #pragma debug scope 22 1
  62  0016              #line 62 "d:\htk\mp3_test\mp3_test.c"
  62  0016              IFDEF WITH_DEFAULT_STARTUP
  62  0016              extern _main_initial0:near
  62  0016              extern _main_startup:near
  62  0016              ENDIF
  62  0016              
  62  0016              ROMBANK 0 @start
  62  0000              @start .section com_l 'code'
  62  0000              _main_startup1:
  62  0000              @start .section com_e 'code'
  62  0000  0F00     R  	mov a,bank _main
  62  0001  008B        	mov bp,a
  62  0002  2800     R  	jmp _main
  62  0003              
  62  0000              _main .section 'code'
  62  0000              _main proc
  63  0000              #line 63 "d:\htk\mp3_test\mp3_test.c"
  63  0000  0FAF        	mov a,175
  63  0001  00BE        	mov [62],a
  66  0002              #line 66 "d:\htk\mp3_test\mp3_test.c"
  66  0002  1F25        	clr [37]
  67  0003              #line 67 "d:\htk\mp3_test\mp3_test.c"
  67  0003  361F        	clr [31].4
  68  0004              #line 68 "d:\htk\mp3_test\mp3_test.c"
  68  0004  369F        	clr [31].5
  69  0005              #line 69 "d:\htk\mp3_test\mp3_test.c"
  69  0005  371F        	clr [31].6
  72  0006              #line 72 "d:\htk\mp3_test\mp3_test.c"
  72  0006  0FF0        	mov a,240
  72  0007  80CE 0001   	lmov [334],a
  73  0009              #line 73 "d:\htk\mp3_test\mp3_test.c"
  73  0009  0F80        	mov a,128
  73  000A  8091 0001   	lmov [273],a
  74  000C              #line 74 "d:\htk\mp3_test\mp3_test.c"
  74  000C  0FE4        	mov a,228
  74  000D  8092 0001   	lmov [274],a
  76  000F              #line 76 "d:\htk\mp3_test\mp3_test.c"
  76  000F  0F28        	mov a,40
  76  0010  80D3 0001   	lmov [339],a
  77  0012              #line 77 "d:\htk\mp3_test\mp3_test.c"
  77  0012  0F80        	mov a,128
"File: mp3_test.c    Assembler  Version HGASM0202      Page 13

  77  0013  8096 0001   	lmov [278],a
  78  0015              #line 78 "d:\htk\mp3_test\mp3_test.c"
  78  0015  0FE4        	mov a,228
  78  0016  8097 0001   	lmov [279],a
  82  0018              #line 82 "d:\htk\mp3_test\mp3_test.c"
  82  0018  0F33        	mov a,51
  82  0019  8094 0001   	lmov [276],a
  83  001B              #line 83 "d:\htk\mp3_test\mp3_test.c"
  83  001B  0F33        	mov a,51
  83  001C  8099 0001   	lmov [281],a
  84  001E              #line 84 "d:\htk\mp3_test\mp3_test.c"
  84  001E  3193        	set [19].3
  84  001F  3038        	set [56].0
  86  0020              #line 86 "d:\htk\mp3_test\mp3_test.c"
  86  0020  1F4E        	clr [78]
  87  0021              #line 87 "d:\htk\mp3_test\mp3_test.c"
  87  0021  0FC1        	mov a,193
  87  0022  00CF        	mov [79],a
  88  0023              #line 88 "d:\htk\mp3_test\mp3_test.c"
  88  0023  0F27        	mov a,39
  88  0024  00D3        	mov [83],a
  89  0025              #line 89 "d:\htk\mp3_test\mp3_test.c"
  89  0025  0F10        	mov a,16
  89  0026  00D2        	mov [82],a
  90  0027              #line 90 "d:\htk\mp3_test\mp3_test.c"
  90  0027  3091        	set [17].1
  90  0028  31B3        	set [51].3
  93  0029              #line 93 "d:\htk\mp3_test\mp3_test.c"
  93  0029              	fcall _LCD_Reset
  94  0030              #line 94 "d:\htk\mp3_test\mp3_test.c"
  94  0030  0F01        	mov a,1
  94  0031  0080     E  	mov _delay_ms_2[0],a
  94  0032  1F00     E  	clr _delay_ms_2[1]
  94  0033              	fcall _delay_ms
  95  003A              #line 95 "d:\htk\mp3_test\mp3_test.c"
  95  003A  0F80        	mov a,128
  95  003B              	fcall _LCD_Cmd
  96  0042              #line 96 "d:\htk\mp3_test\mp3_test.c"
  96  0042  0F01        	mov a,1
  96  0043  0080     E  	mov _delay_ms_2[0],a
  96  0044  1F00     E  	clr _delay_ms_2[1]
  96  0045              	fcall _delay_ms
  97  004C              #line 97 "d:\htk\mp3_test\mp3_test.c"
  97  004C  1F00     R  	clr _i[0]
  97  004D  1F00     R  	clr _i[1]
  97  004E              _L39:
  97  004E              #line 97 "d:\htk\mp3_test\mp3_test.c"
  97  004E  0700     R  	mov a,_i[0]
  97  004F  0080     E  	mov rb,a
  97  0050  0700     R  	mov a,_i[1]
  97  0051  0080     E  	mov rc,a
  97  0052  0F0F        	mov a,15
  97  0053  0200     E  	sub a,rb
  97  0054  0F00        	mov a,0
  97  0055  1200     E  	sbc a,rc
  97  0056  380A        	snz c
  97  0057  2800     R  	jmp _L44
  98  0058              #line 98 "d:\htk\mp3_test\mp3_test.c"
  98  0058  0F00     R  	mov a,low offset _Table1
  98  0059  0300     E  	add a,rb
"File: mp3_test.c    Assembler  Version HGASM0202      Page 14

  98  005A  0083        	mov mp,a
  98  005B  0F00     R  	mov a,high offset _Table1
  98  005C  1300     E  	adc a,rc
  98  005D  0084        	mov sbp,a
  98  005E              	fcall _Crom2Prom
  98  0065              	fcall _LCD_Senddata
  97  006C              #line 97 "d:\htk\mp3_test\mp3_test.c"
  97  006C  1480     R  	inc _i[0]
  97  006D  3D0A        	sz z
  97  006E  1480     R  	inc _i[1]
  97  006F  2800     R  	jmp _L39
  97  0070              _L44:
 100  0070              #line 100 "d:\htk\mp3_test\mp3_test.c"
 100  0070  0F0A        	mov a,10
 100  0071  0080     E  	mov _delay_ms_2[0],a
 100  0072  1F00     E  	clr _delay_ms_2[1]
 100  0073              	fcall _delay_ms
 101  007A              #line 101 "d:\htk\mp3_test\mp3_test.c"
 101  007A  0FC0        	mov a,192
 101  007B              	fcall _LCD_Cmd
 102  0082              #line 102 "d:\htk\mp3_test\mp3_test.c"
 102  0082  0F01        	mov a,1
 102  0083  0080     E  	mov _delay_ms_2[0],a
 102  0084  1F00     E  	clr _delay_ms_2[1]
 102  0085              	fcall _delay_ms
 103  008C              #line 103 "d:\htk\mp3_test\mp3_test.c"
 103  008C  1F00     R  	clr _i[0]
 103  008D  1F00     R  	clr _i[1]
 103  008E              _L41:
 103  008E  0700     R  	mov a,_i[0]
 103  008F  0080     E  	mov rb,a
 103  0090  0700     R  	mov a,_i[1]
 103  0091  0080     E  	mov rc,a
 103  0092  0F0F        	mov a,15
 103  0093  0200     E  	sub a,rb
 103  0094  0F00        	mov a,0
 103  0095  1200     E  	sbc a,rc
 103  0096  380A        	snz c
 103  0097  2800     R  	jmp _L45
 104  0098              #line 104 "d:\htk\mp3_test\mp3_test.c"
 104  0098  0F00     R  	mov a,low offset _Table2
 104  0099  0300     E  	add a,rb
 104  009A  0083        	mov mp,a
 104  009B  0F00     R  	mov a,high offset _Table2
 104  009C  1300     E  	adc a,rc
 104  009D  0084        	mov sbp,a
 104  009E              	fcall _Crom2Prom
 104  00A5              	fcall _LCD_Senddata
 103  00AC              #line 103 "d:\htk\mp3_test\mp3_test.c"
 103  00AC  1480     R  	inc _i[0]
 103  00AD  3D0A        	sz z
 103  00AE  1480     R  	inc _i[1]
 103  00AF  2800     R  	jmp _L41
 103  00B0              _L45:
 106  00B0              #line 106 "d:\htk\mp3_test\mp3_test.c"
 106  00B0  0FB8        	mov a,-72
 106  00B1  0080     E  	mov _delay_ms_2[0],a
 106  00B2  0F0B        	mov a,11
 106  00B3  0080     E  	mov _delay_ms_2[1],a
 106  00B4              	fcall _delay_ms
"File: mp3_test.c    Assembler  Version HGASM0202      Page 15

 108  00BB              #line 108 "d:\htk\mp3_test\mp3_test.c"
 108  00BB  0F01        	mov a,1
 108  00BC              	fcall _LCD_Cmd
 109  00C3              #line 109 "d:\htk\mp3_test\mp3_test.c"
 109  00C3  0F01        	mov a,1
 109  00C4  0080     E  	mov _delay_ms_2[0],a
 109  00C5  1F00     E  	clr _delay_ms_2[1]
 109  00C6              	fcall _delay_ms
 110  00CD              #line 110 "d:\htk\mp3_test\mp3_test.c"
 110  00CD  0F80        	mov a,128
 110  00CE              	fcall _LCD_Cmd
 111  00D5              #line 111 "d:\htk\mp3_test\mp3_test.c"
 111  00D5  0700     R  	mov a,_Table3[0]
 111  00D6  0080     E  	mov _LCD_Print_Str_2[0],a
 111  00D7  0700     R  	mov a,_Table3[1]
 111  00D8  0080     E  	mov _LCD_Print_Str_2[1],a
 111  00D9              	fcall _LCD_Print_Str
 112  00E0              #line 112 "d:\htk\mp3_test\mp3_test.c"
 112  00E0  0FC0        	mov a,192
 112  00E1              	fcall _LCD_Cmd
 115  00E8              #line 115 "d:\htk\mp3_test\mp3_test.c"
 115  00E8  1F00     R  	clr _execute_CMD_2[2]
 115  00E9  1F00     R  	clr _execute_CMD_2[1]
 115  00EA  1F00     R  	clr _execute_CMD_2[0]
 115  00EB  0F0C        	mov a,12
 115  00EC              	fcall _execute_CMD
 116  00F3              #line 116 "d:\htk\mp3_test\mp3_test.c"
 116  00F3  0FF4        	mov a,-12
 116  00F4  0080     E  	mov _delay_ms_2[0],a
 116  00F5  0F01        	mov a,1
 116  00F6  0080     E  	mov _delay_ms_2[1],a
 116  00F7              	fcall _delay_ms
 118  00FE              #line 118 "d:\htk\mp3_test\mp3_test.c"
 118  00FE  1F00     R  	clr _execute_CMD_2[2]
 118  00FF  1F00     R  	clr _execute_CMD_2[1]
 118  0100  1F00     R  	clr _execute_CMD_2[0]
 118  0101  0F1A        	mov a,26
 118  0102              	fcall _execute_CMD
 119  0109              #line 119 "d:\htk\mp3_test\mp3_test.c"
 119  0109  0FF4        	mov a,-12
 119  010A  0080     E  	mov _delay_ms_2[0],a
 119  010B  0F01        	mov a,1
 119  010C  0080     E  	mov _delay_ms_2[1],a
 119  010D              	fcall _delay_ms
 127  0114              #line 127 "d:\htk\mp3_test\mp3_test.c"
 127  0114              	fcall _playFirst
 128  011B              #line 128 "d:\htk\mp3_test\mp3_test.c"
 128  011B  0FD0        	mov a,-48
 128  011C  0080     E  	mov _delay_ms_2[0],a
 128  011D  0F07        	mov a,7
 128  011E  0080     E  	mov _delay_ms_2[1],a
 128  011F              	fcall _delay_ms
 129  0126              #line 129 "d:\htk\mp3_test\mp3_test.c"
 129  0126              	fcall _play
 130  012D              #line 130 "d:\htk\mp3_test\mp3_test.c"
 130  012D  0FD0        	mov a,-48
 130  012E  0080     E  	mov _delay_ms_2[0],a
 130  012F  0F07        	mov a,7
 130  0130  0080     E  	mov _delay_ms_2[1],a
 130  0131              	fcall _delay_ms
"File: mp3_test.c    Assembler  Version HGASM0202      Page 16

 132  0138              #line 132 "d:\htk\mp3_test\mp3_test.c"
 132  0138  31CE        	set [78].3
 133  0139              #line 133 "d:\htk\mp3_test\mp3_test.c"
 133  0139  3410        	clr [16].0
 133  013A              _L43:
 133  013A  2800     R  	jmp _L43
 133  013B  2800     R  	jmp $
 133  013C              _main endp
 133  013C              
 133  013C              @dummy endp
 133  013C              
 133  013C              #line 133 "d:\htk\mp3_test\mp3_test.c"
 133  013C              #pragma debug scope 1 1
 133  013C              public _UART1_Getch
 133  013C              #pragma debug scope 23 1
 384  013C              #line 384 "d:\htk\mp3_test\mp3_test.c"
 384  0000              _UART1_Getch .section 'code'
 384  0000              _UART1_Getch proc
 384  0000              _L48:
 386  0000              #line 386 "d:\htk\mp3_test\mp3_test.c"
 386  0000  BD95 0001   	lsz [277].3
 386  0002  2800     R  	jmp _L48
 386  0003              _L50:
 387  0003              #line 387 "d:\htk\mp3_test\mp3_test.c"
 387  0003  B915 0001   	lsnz [277].2
 387  0005  2800     R  	jmp _L50
 389  0006              #line 389 "d:\htk\mp3_test\mp3_test.c"
 389  0006  8718 0001   	lmov a,[280]
 389  0008  0080     E  	mov ra,a
 391  0009              #line 391 "d:\htk\mp3_test\mp3_test.c"
 391  0009  0700     E  	mov a,ra
 391  000A  0003        	ret
 391  000B              _UART1_Getch endp
 391  000B              #line 391 "d:\htk\mp3_test\mp3_test.c"
 391  000B              #pragma debug scope 1 1
 391  000B              public _send_command
 391  000B              #pragma debug scope 24 1
 394  000B              #line 394 "d:\htk\mp3_test\mp3_test.c"
 394  0000              _send_command .section 'code'
 394  0000              _send_command proc
 394  0000              public _send_command_2
 394  0000  0004[           local _send_command_2 db 4 dup(?)	; 2,2
            00
            ]
 394  0004              #pragma debug pointer 42 8 24
 394  0004              #pragma debug pointer 42 8 24
 394  0004              #pragma debug variable 42 24 _send_command_2+0 "command"
 395  0004              #line 395 "d:\htk\mp3_test\mp3_test.c"
 395  0000  0700     R  	mov a,_send_command_2[0]
 395  0001  0080     E  	mov _strlen_2[0],a
 395  0002  0700     R  	mov a,_send_command_2[1]
 395  0003  0080     E  	mov _strlen_2[1],a
 395  0004              	fcall _strlen
 395  000B  0700     E  	mov a,ra
 395  000C  0080     R  	mov _send_command_2[3],a
 395  000D  0700     E  	mov a,ra
 395  000E  0080     E  	mov rd,a
 399  000F              #line 399 "d:\htk\mp3_test\mp3_test.c"
 399  000F  0F41        	mov a,65
 399  0010  0080     R  	mov _bt_data[0],a
"File: mp3_test.c    Assembler  Version HGASM0202      Page 17

 400  0011              #line 400 "d:\htk\mp3_test\mp3_test.c"
 400  0011  0F54        	mov a,84
 400  0012  0080     R  	mov _bt_data[1],a
 401  0013              #line 401 "d:\htk\mp3_test\mp3_test.c"
 401  0013  1F00     E  	clr ra
 401  0014              _L53:
 401  0014              #line 401 "d:\htk\mp3_test\mp3_test.c"
 401  0014  0700     E  	mov a,ra
 401  0015  0200     E  	sub a,rd
 401  0016  3C0A        	sz c
 401  0017  2800     R  	jmp _L59
 402  0018              #line 402 "d:\htk\mp3_test\mp3_test.c"
 402  0018  0700     E  	mov a,ra
 402  0019  0080     E  	mov rb,a
 402  001A  1F00     E  	clr rc
 402  001B  0700     E  	mov a,rb
 402  001C  0300     R  	add a,_send_command_2[0]
 402  001D  0083        	mov mp,a
 402  001E  0700     E  	mov a,rc
 402  001F  1300     R  	adc a,_send_command_2[1]
 402  0020  0084        	mov sbp,a
 402  0021              	fcall _Crom2Prom
 402  0028  0080     E  	mov re,a
 402  0029  0F00     R  	mov a,low (offset _bt_data+2)
 402  002A  0300     E  	add a,rb
 402  002B  0083        	mov mp,a
 402  002C  0F00     R  	mov a,high (offset _bt_data+2)
 402  002D  1300     E  	adc a,rc
 402  002E  0084        	mov sbp,a
 402  002F  0700     E  	mov a,re
 402  0030  0082        	mov ir,a
 401  0031              #line 401 "d:\htk\mp3_test\mp3_test.c"
 401  0031  1480     E  	inc ra
 401  0032  2800     R  	jmp _L53
 401  0033              _L59:
 401  0033  1F00     R  	clr _send_command_2[2]
 401  0034              _L55:
 407  0034              #line 407 "d:\htk\mp3_test\mp3_test.c"
 407  0034  0700     R  	mov a,_send_command_2[2]
 407  0035  0080     E  	mov rb,a
 407  0036  1F00     E  	clr rc
 407  0037  0F02        	mov a,2
 407  0038  0300     R  	add a,_send_command_2[3]
 407  0039  0080     E  	mov rd,a
 407  003A  0F00        	mov a,0
 407  003B  1F00     E  	clr re
 407  003C  1380     E  	adcm a,re
 407  003D  0700     E  	mov a,rb
 407  003E  0200     E  	sub a,rd
 407  003F  0700     E  	mov a,rc
 407  0040  1200     E  	sbc a,re
 407  0041  3B8A        	snz sc
 407  0042  2800     R  	jmp _L60
 408  0043              #line 408 "d:\htk\mp3_test\mp3_test.c"
 408  0043  0F00     R  	mov a,low offset _bt_data
 408  0044  0300     E  	add a,rb
 408  0045  0083        	mov mp,a
 408  0046  0F00     R  	mov a,high offset _bt_data
 408  0047  1300     E  	adc a,rc
 408  0048  0084        	mov sbp,a
"File: mp3_test.c    Assembler  Version HGASM0202      Page 18

 408  0049              	fcall _Crom2Prom
 408  0050  0080     E  	mov ra,a
 408  0051  0700     E  	mov a,ra
 408  0052              	fcall _UART1_Putch
 407  0059              #line 407 "d:\htk\mp3_test\mp3_test.c"
 407  0059  1480     R  	inc _send_command_2[2]
 407  005A  2800     R  	jmp _L55
 407  005B              _L60:
 409  005B              #line 409 "d:\htk\mp3_test\mp3_test.c"
 409  005B  0F0D        	mov a,13
 409  005C              	fcall _UART1_Putch
 410  0063              #line 410 "d:\htk\mp3_test\mp3_test.c"
 410  0063  0F0A        	mov a,10
 410  0064              	fcall _UART1_Putch
 410  006B              _L58:
 412  006B              #line 412 "d:\htk\mp3_test\mp3_test.c"
 412  006B  3800     R  	snz _fgRx
 412  006C  2800     R  	jmp _L58
 413  006D              #line 413 "d:\htk\mp3_test\mp3_test.c"
 413  006D  3400     R  	clr _fgRx
 413  006E  0003        	ret
 413  006F              _send_command endp
 413  006F              #line 413 "d:\htk\mp3_test\mp3_test.c"
 413  006F              #pragma debug scope 1 1
 413  006F              public _digit
 413  0000              @HCCINIT	.section 'data'
  60  0000              #line 60 "d:\htk\mp3_test\mp3_test.c"
  60  0000              @HCCINIT_digit .section 'data'
  60  0000              _digit label byte
  60  0000              #pragma debug array 43 8 2 1
  60  0000              #pragma debug array 43 8 2 1
  60  0000              #pragma debug variable 43 1 _digit "digit"
  60  0000              	db 0
  60  0000              @ROMDATA_BASE .section inpage 'code'
  60  0000              	db 0
  60  0001              @HCCINIT_digit .section 'data'
  60  0001              	db 0
  60  0001              @ROMDATA_BASE .section inpage 'code'
  60  0001              	db 0
  60  0002              @HCCINIT_digit .section 'data'
  60  0002              public _key
  59  0002              #line 59 "d:\htk\mp3_test\mp3_test.c"
  59  0000              @HCCINIT_key .section 'data'
  59  0000              _key label byte
  59  0000              #pragma debug variable 8 1 _key "key"
  59  0000              	db 15
  59  0001              @ROMDATA_BASE .section inpage 'code'
  59  0001              	db 15
  59  0001              @HCCINIT_key .section 'data'
  59  0001              public _P
  58  0001              #line 58 "d:\htk\mp3_test\mp3_test.c"
  58  0000              @BITDATASEC1 .section 'data'
  58  0000  00          _P	dbit 1
  58  0001              #pragma debug variable 2 1 _P "P"
  58  0001              public _flash
  57  0001              #line 57 "d:\htk\mp3_test\mp3_test.c"
  57  0000              @BITDATASEC .section 'data'
  57  0000  00          _flash	dbit 0
  57  0001              #pragma debug variable 2 1 _flash "flash"
  57  0001              public _T1s_flag
"File: mp3_test.c    Assembler  Version HGASM0202      Page 19

  56  0001              #line 56 "d:\htk\mp3_test\mp3_test.c"
  56  0001              @BITDATASEC .section 'data'
  56  0000              _T1s_flag	dbit 0
  56  0001              #pragma debug variable 2 1 _T1s_flag "T1s_flag"
  56  0001              public _T100ms_flag
  56  0001              #line 56 "d:\htk\mp3_test\mp3_test.c"
  56  0001              @BITDATASEC .section 'data'
  56  0000              _T100ms_flag	dbit 0
  56  0001              #pragma debug variable 2 1 _T100ms_flag "T100ms_flag"
  56  0001              public _T500ms_flag
  56  0001              #line 56 "d:\htk\mp3_test\mp3_test.c"
  56  0001              @BITDATASEC .section 'data'
  56  0000              _T500ms_flag	dbit 0
  56  0001              #pragma debug variable 2 1 _T500ms_flag "T500ms_flag"
  56  0001              public _T250ms_flag
  56  0001              #line 56 "d:\htk\mp3_test\mp3_test.c"
  56  0001              @BITDATASEC .section 'data'
  56  0000              _T250ms_flag	dbit 0
  56  0001              #pragma debug variable 2 1 _T250ms_flag "T250ms_flag"
  56  0001              public _T1s_cnt
  55  0001              #line 55 "d:\htk\mp3_test\mp3_test.c"
  55  0000              @HCCINIT_T1s_cnt .section 'data'
  55  0000              _T1s_cnt label byte
  55  0000              #pragma debug variable 12 1 _T1s_cnt "T1s_cnt"
  55  0000              	dw 400
  55  0002              @ROMDATA_BASE .section inpage 'code'
  55  0002  0190        	dc 400
  55  0002              @HCCINIT_T1s_cnt .section 'data'
  55  0002              public _T20ms_cnt
  54  0002              #line 54 "d:\htk\mp3_test\mp3_test.c"
  54  0000              @HCCINIT_T20ms_cnt .section 'data'
  54  0000              _T20ms_cnt label byte
  54  0000              #pragma debug variable 8 1 _T20ms_cnt "T20ms_cnt"
  54  0000              	db 4
  54  0003              @ROMDATA_BASE .section inpage 'code'
  54  0003              	db 4
  54  0001              @HCCINIT_T20ms_cnt .section 'data'
  54  0001              public _T250ms_cnt
  54  0001              #line 54 "d:\htk\mp3_test\mp3_test.c"
  54  0000              @HCCINIT_T250ms_cnt .section 'data'
  54  0000              _T250ms_cnt label byte
  54  0000              #pragma debug variable 8 1 _T250ms_cnt "T250ms_cnt"
  54  0000              	db 100
  54  0003              @ROMDATA_BASE .section inpage 'code'
  54  0003              	db 100
  54  0001              @HCCINIT_T250ms_cnt .section 'data'
  54  0001              public _T100ms_cnt
  53  0001              #line 53 "d:\htk\mp3_test\mp3_test.c"
  53  0000              @HCCINIT_T100ms_cnt .section 'data'
  53  0000              _T100ms_cnt label byte
  53  0000              #pragma debug variable 8 1 _T100ms_cnt "T100ms_cnt"
  53  0000              	db 40
  53  0004              @ROMDATA_BASE .section inpage 'code'
  53  0004              	db 40
  53  0001              @HCCINIT_T100ms_cnt .section 'data'
  53  0001              public _T500ms_cnt
  53  0001              #line 53 "d:\htk\mp3_test\mp3_test.c"
  53  0000              @HCCINIT_T500ms_cnt .section 'data'
  53  0000              _T500ms_cnt label byte
  53  0000              #pragma debug variable 8 1 _T500ms_cnt "T500ms_cnt"
"File: mp3_test.c    Assembler  Version HGASM0202      Page 20

  53  0000              	db -56
  53  0004              @ROMDATA_BASE .section inpage 'code'
  53  0004              	db -56
  53  0001              @HCCINIT_T500ms_cnt .section 'data'
  53  0001              public _i
  52  0001              #line 52 "d:\htk\mp3_test\mp3_test.c"
  52  0000              @HCCINIT_i .section 'data'
  52  0000              _i label byte
  52  0000              #pragma debug variable 12 1 _i "i"
  52  0000              	dw 200
  52  0005              @ROMDATA_BASE .section inpage 'code'
  52  0005  00C8        	dc 200
  52  0002              @HCCINIT_i .section 'data'
  52  0002              public _Command_line
  31  0002              #line 31 "d:\htk\mp3_test\mp3_test.c"
  31  0000              @HCCINIT_Command_line .section 'data'
  31  0000              _Command_line label byte
  31  0000              #pragma debug array 44 8 10 1
  31  0000              #pragma debug array 44 8 10 1
  31  0000              #pragma debug variable 44 1 _Command_line "Command_line"
  31  0000              	db 0
  31  0006              @ROMDATA_BASE .section inpage 'code'
  31  0006              	db 0
  31  0001              @HCCINIT_Command_line .section 'data'
  31  0001              	db 0
  31  0006              @ROMDATA_BASE .section inpage 'code'
  31  0006              	db 0
  31  0002              @HCCINIT_Command_line .section 'data'
  31  0002              	db 0
  31  0007              @ROMDATA_BASE .section inpage 'code'
  31  0007              	db 0
  31  0003              @HCCINIT_Command_line .section 'data'
  31  0003              	db 0
  31  0007              @ROMDATA_BASE .section inpage 'code'
  31  0007              	db 0
  31  0004              @HCCINIT_Command_line .section 'data'
  31  0004              	db 0
  31  0008              @ROMDATA_BASE .section inpage 'code'
  31  0008              	db 0
  31  0005              @HCCINIT_Command_line .section 'data'
  31  0005              	db 0
  31  0008              @ROMDATA_BASE .section inpage 'code'
  31  0008              	db 0
  31  0006              @HCCINIT_Command_line .section 'data'
  31  0006              	db 0
  31  0009              @ROMDATA_BASE .section inpage 'code'
  31  0009              	db 0
  31  0007              @HCCINIT_Command_line .section 'data'
  31  0007              	db 0
  31  0009              @ROMDATA_BASE .section inpage 'code'
  31  0009              	db 0
  31  0008              @HCCINIT_Command_line .section 'data'
  31  0008              	db 0
  31  000A              @ROMDATA_BASE .section inpage 'code'
  31  000A              	db 0
  31  0009              @HCCINIT_Command_line .section 'data'
  31  0009              	db 0
  31  000A              @ROMDATA_BASE .section inpage 'code'
  31  000A              	db 0
  31  000A              @HCCINIT_Command_line .section 'data'
"File: mp3_test.c    Assembler  Version HGASM0202      Page 21

  31  000A              public _fgRx
  30  000A              #line 30 "d:\htk\mp3_test\mp3_test.c"
  30  0001              @BITDATASEC .section 'data'
  30  0000              _fgRx	dbit 0
  30  0001              #pragma debug variable 2 1 _fgRx "fgRx"
  30  0001              public _bt_ind
  29  0001              #line 29 "d:\htk\mp3_test\mp3_test.c"
  29  0000              @HCCINIT_bt_ind .section 'data'
  29  0000              _bt_ind label byte
  29  0000              #pragma debug variable 8 1 _bt_ind "bt_ind"
  29  0000              	db 0
  29  000B              @ROMDATA_BASE .section inpage 'code'
  29  000B              	db 0
  29  0001              @HCCINIT_bt_ind .section 'data'
  29  0001              public _RxDataLN
  29  0001              #line 29 "d:\htk\mp3_test\mp3_test.c"
  29  0000              @HCCINIT_RxDataLN .section 'data'
  29  0000              _RxDataLN label byte
  29  0000              #pragma debug variable 8 1 _RxDataLN "RxDataLN"
  29  0000              	db 0
  29  000B              @ROMDATA_BASE .section inpage 'code'
  29  000B              	db 0
  29  0001              @HCCINIT_RxDataLN .section 'data'
  29  0001              public _bt_data
  28  0001              #line 28 "d:\htk\mp3_test\mp3_test.c"
  28  0000              @HCCINIT_bt_data .section 'data'
  28  0000              _bt_data label byte
  28  0000              #pragma debug variable 44 1 _bt_data "bt_data"
  28  0000              	db 0
  28  000C              @ROMDATA_BASE .section inpage 'code'
  28  000C              	db 0
  28  0001              @HCCINIT_bt_data .section 'data'
  28  0001              	db 0
  28  000C              @ROMDATA_BASE .section inpage 'code'
  28  000C              	db 0
  28  0002              @HCCINIT_bt_data .section 'data'
  28  0002              	db 0
  28  000D              @ROMDATA_BASE .section inpage 'code'
  28  000D              	db 0
  28  0003              @HCCINIT_bt_data .section 'data'
  28  0003              	db 0
  28  000D              @ROMDATA_BASE .section inpage 'code'
  28  000D              	db 0
  28  0004              @HCCINIT_bt_data .section 'data'
  28  0004              	db 0
  28  000E              @ROMDATA_BASE .section inpage 'code'
  28  000E              	db 0
  28  0005              @HCCINIT_bt_data .section 'data'
  28  0005              	db 0
  28  000E              @ROMDATA_BASE .section inpage 'code'
  28  000E              	db 0
  28  0006              @HCCINIT_bt_data .section 'data'
  28  0006              	db 0
  28  000F              @ROMDATA_BASE .section inpage 'code'
  28  000F              	db 0
  28  0007              @HCCINIT_bt_data .section 'data'
  28  0007              	db 0
  28  000F              @ROMDATA_BASE .section inpage 'code'
  28  000F              	db 0
  28  0008              @HCCINIT_bt_data .section 'data'
"File: mp3_test.c    Assembler  Version HGASM0202      Page 22

  28  0008              	db 0
  28  0010              @ROMDATA_BASE .section inpage 'code'
  28  0010              	db 0
  28  0009              @HCCINIT_bt_data .section 'data'
  28  0009              	db 0
  28  0010              @ROMDATA_BASE .section inpage 'code'
  28  0010              	db 0
  28  000A              @HCCINIT_bt_data .section 'data'
  28  000A              public _RxData
  28  000A              #line 28 "d:\htk\mp3_test\mp3_test.c"
  28  0000              @HCCINIT_RxData .section 'data'
  28  0000              _RxData label byte
  28  0000              #pragma debug array 45 8 32 1
  28  0000              #pragma debug array 45 8 32 1
  28  0000              #pragma debug variable 45 1 _RxData "RxData"
  28  0000              	db 32
  28  0011              @ROMDATA_BASE .section inpage 'code'
  28  0011              	db 32
  28  0001              @HCCINIT_RxData .section 'data'
  28  0001              	db 0
  28  0011              @ROMDATA_BASE .section inpage 'code'
  28  0011              	db 0
  28  0002              @HCCINIT_RxData .section 'data'
  28  0002              	db 0
  28  0012              @ROMDATA_BASE .section inpage 'code'
  28  0012              	db 0
  28  0003              @HCCINIT_RxData .section 'data'
  28  0003              	db 0
  28  0012              @ROMDATA_BASE .section inpage 'code'
  28  0012              	db 0
  28  0004              @HCCINIT_RxData .section 'data'
  28  0004              	db 0
  28  0013              @ROMDATA_BASE .section inpage 'code'
  28  0013              	db 0
  28  0005              @HCCINIT_RxData .section 'data'
  28  0005              	db 0
  28  0013              @ROMDATA_BASE .section inpage 'code'
  28  0013              	db 0
  28  0006              @HCCINIT_RxData .section 'data'
  28  0006              	db 0
  28  0014              @ROMDATA_BASE .section inpage 'code'
  28  0014              	db 0
  28  0007              @HCCINIT_RxData .section 'data'
  28  0007              	db 0
  28  0014              @ROMDATA_BASE .section inpage 'code'
  28  0014              	db 0
  28  0008              @HCCINIT_RxData .section 'data'
  28  0008              	db 0
  28  0015              @ROMDATA_BASE .section inpage 'code'
  28  0015              	db 0
  28  0009              @HCCINIT_RxData .section 'data'
  28  0009              	db 0
  28  0015              @ROMDATA_BASE .section inpage 'code'
  28  0015              	db 0
  28  000A              @HCCINIT_RxData .section 'data'
  28  000A              	db 0
  28  0016              @ROMDATA_BASE .section inpage 'code'
  28  0016              	db 0
  28  000B              @HCCINIT_RxData .section 'data'
  28  000B              	db 0
"File: mp3_test.c    Assembler  Version HGASM0202      Page 23

  28  0016              @ROMDATA_BASE .section inpage 'code'
  28  0016              	db 0
  28  000C              @HCCINIT_RxData .section 'data'
  28  000C              	db 0
  28  0017              @ROMDATA_BASE .section inpage 'code'
  28  0017              	db 0
  28  000D              @HCCINIT_RxData .section 'data'
  28  000D              	db 0
  28  0017              @ROMDATA_BASE .section inpage 'code'
  28  0017              	db 0
  28  000E              @HCCINIT_RxData .section 'data'
  28  000E              	db 0
  28  0018              @ROMDATA_BASE .section inpage 'code'
  28  0018              	db 0
  28  000F              @HCCINIT_RxData .section 'data'
  28  000F              	db 0
  28  0018              @ROMDATA_BASE .section inpage 'code'
  28  0018              	db 0
  28  0010              @HCCINIT_RxData .section 'data'
  28  0010              	db 0
  28  0019              @ROMDATA_BASE .section inpage 'code'
  28  0019              	db 0
  28  0011              @HCCINIT_RxData .section 'data'
  28  0011              	db 0
  28  0019              @ROMDATA_BASE .section inpage 'code'
  28  0019              	db 0
  28  0012              @HCCINIT_RxData .section 'data'
  28  0012              	db 0
  28  001A              @ROMDATA_BASE .section inpage 'code'
  28  001A              	db 0
  28  0013              @HCCINIT_RxData .section 'data'
  28  0013              	db 0
  28  001A              @ROMDATA_BASE .section inpage 'code'
  28  001A              	db 0
  28  0014              @HCCINIT_RxData .section 'data'
  28  0014              	db 0
  28  001B              @ROMDATA_BASE .section inpage 'code'
  28  001B              	db 0
  28  0015              @HCCINIT_RxData .section 'data'
  28  0015              	db 0
  28  001B              @ROMDATA_BASE .section inpage 'code'
  28  001B              	db 0
  28  0016              @HCCINIT_RxData .section 'data'
  28  0016              	db 0
  28  001C              @ROMDATA_BASE .section inpage 'code'
  28  001C              	db 0
  28  0017              @HCCINIT_RxData .section 'data'
  28  0017              	db 0
  28  001C              @ROMDATA_BASE .section inpage 'code'
  28  001C              	db 0
  28  0018              @HCCINIT_RxData .section 'data'
  28  0018              	db 0
  28  001D              @ROMDATA_BASE .section inpage 'code'
  28  001D              	db 0
  28  0019              @HCCINIT_RxData .section 'data'
  28  0019              	db 0
  28  001D              @ROMDATA_BASE .section inpage 'code'
  28  001D              	db 0
  28  001A              @HCCINIT_RxData .section 'data'
  28  001A              	db 0
"File: mp3_test.c    Assembler  Version HGASM0202      Page 24

  28  001E              @ROMDATA_BASE .section inpage 'code'
  28  001E              	db 0
  28  001B              @HCCINIT_RxData .section 'data'
  28  001B              	db 0
  28  001E              @ROMDATA_BASE .section inpage 'code'
  28  001E              	db 0
  28  001C              @HCCINIT_RxData .section 'data'
  28  001C              	db 0
  28  001F              @ROMDATA_BASE .section inpage 'code'
  28  001F              	db 0
  28  001D              @HCCINIT_RxData .section 'data'
  28  001D              	db 0
  28  001F              @ROMDATA_BASE .section inpage 'code'
  28  001F              	db 0
  28  001E              @HCCINIT_RxData .section 'data'
  28  001E              	db 0
  28  0020              @ROMDATA_BASE .section inpage 'code'
  28  0020              	db 0
  28  001F              @HCCINIT_RxData .section 'data'
  28  001F              	db 0
  28  0020              @ROMDATA_BASE .section inpage 'code'
  28  0020              	db 0
  28  0020              @HCCINIT_RxData .section 'data'
  28  0020              public _RESET
  28  0000              @crom	.section 'crom'
  11  0000              #line 11 "d:\htk\mp3_test\mp3_test.c"
  11  0000              @crom	.section	'crom'
  11  0000              _RESET:
  11  0000              #pragma debug array 46 8 7 1
  11  0000              #pragma debug array 46 8 7 1
  11  0000              #pragma debug variable 46 1 _RESET "RESET"
  11  0000              	db 02bh,052h,045h,053h,045h,054h,00h
  11  0004              public _Table13
  11  0004              @crom	.section 'crom'
  11  0004              _LC0:
  11  0004              	db 020h,020h,020h,020h,050h,072h,065h,069h,020h,04fh
  11  0009              	db 06eh,065h,02eh,020h,020h,020h,020h,00h
  11  0000              @HCCINIT	.section 'data'
  10  0000              #line 10 "d:\htk\mp3_test\mp3_test.c"
  10  0000              @HCCINIT_Table13 .section 'data'
  10  0000              _Table13 label byte
  10  0000              #pragma debug pointer 47 8 1
  10  0000              #pragma debug pointer 47 8 1
  10  0000              #pragma debug variable 47 1 _Table13 "Table13"
  10  0000              	dw offset _LC0
  10  0021              @ROMDATA_BASE .section inpage 'code'
  10  0021  0000     R  	dc offset _LC0
  10  0002              @HCCINIT_Table13 .section 'data'
  10  0002              public _Table12
  10  000D              @crom	.section 'crom'
  10  000D              _LC1:
  10  000D              	db 020h,020h,020h,020h,04eh,065h,078h,074h,020h,04fh
  10  0012              	db 06eh,065h,02eh,020h,020h,020h,020h,00h
  10  0000              @HCCINIT	.section 'data'
   9  0000              #line 9 "d:\htk\mp3_test\mp3_test.c"
   9  0000              @HCCINIT_Table12 .section 'data'
   9  0000              _Table12 label byte
   9  0000              #pragma debug variable 47 1 _Table12 "Table12"
   9  0000              	dw offset _LC1
   9  0022              @ROMDATA_BASE .section inpage 'code'
"File: mp3_test.c    Assembler  Version HGASM0202      Page 25

   9  0022  0000     R  	dc offset _LC1
   9  0002              @HCCINIT_Table12 .section 'data'
   9  0002              public _Table11
   9  0016              @crom	.section 'crom'
   9  0016              _LC2:
   9  0016              	db 020h,020h,056h,06fh,069h,063h,065h,020h,044h,06fh
   9  001B              	db 077h,06eh,02eh,020h,020h,020h,020h,00h
   9  0000              @HCCINIT	.section 'data'
   8  0000              #line 8 "d:\htk\mp3_test\mp3_test.c"
   8  0000              @HCCINIT_Table11 .section 'data'
   8  0000              _Table11 label byte
   8  0000              #pragma debug variable 47 1 _Table11 "Table11"
   8  0000              	dw offset _LC2
   8  0023              @ROMDATA_BASE .section inpage 'code'
   8  0023  0000     R  	dc offset _LC2
   8  0002              @HCCINIT_Table11 .section 'data'
   8  0002              public _Table10
   8  001F              @crom	.section 'crom'
   8  001F              _LC3:
   8  001F              	db 020h,020h,020h,020h,056h,06fh,069h,063h,065h,020h
   8  0024              	db 055h,070h,02eh,020h,020h,020h,020h,00h
   8  0000              @HCCINIT	.section 'data'
   7  0000              #line 7 "d:\htk\mp3_test\mp3_test.c"
   7  0000              @HCCINIT_Table10 .section 'data'
   7  0000              _Table10 label byte
   7  0000              #pragma debug variable 47 1 _Table10 "Table10"
   7  0000              	dw offset _LC3
   7  0024              @ROMDATA_BASE .section inpage 'code'
   7  0024  0000     R  	dc offset _LC3
   7  0002              @HCCINIT_Table10 .section 'data'
   7  0002              public _num
   7  0028              @crom	.section 'crom'
   6  0028              #line 6 "d:\htk\mp3_test\mp3_test.c"
   6  0028              @crom	.section	'crom'
   6  0028              _num:
   6  0028              #pragma debug array 48 8 11 1
   6  0028              #pragma debug array 48 8 11 1
   6  0028              #pragma debug variable 48 1 _num "num"
   6  0028              	db 030h,031h,032h,033h,034h,035h,036h,037h,038h,039h
   6  002D              	db 00h
   6  002D              public _Table3
   6  002D              @crom	.section 'crom'
   6  002D              _LC4:
   6  002D              	db 059h,044h,041h,031h,036h,038h,020h,045h,04ch,045h
   6  0032              	db 020h,074h,065h,073h,074h,00h
   6  0000              @HCCINIT	.section 'data'
   5  0000              #line 5 "d:\htk\mp3_test\mp3_test.c"
   5  0000              @HCCINIT_Table3 .section 'data'
   5  0000              _Table3 label byte
   5  0000              #pragma debug variable 47 1 _Table3 "Table3"
   5  0000              	dw offset _LC4
   5  0025              @ROMDATA_BASE .section inpage 'code'
   5  0025  0000     R  	dc offset _LC4
   5  0002              @HCCINIT_Table3 .section 'data'
   5  0002              public _Table2
   5  0035              @crom	.section 'crom'
   4  0035              #line 4 "d:\htk\mp3_test\mp3_test.c"
   4  0035              @crom	.section	'crom'
   4  0035              _Table2:
   4  0035              #pragma debug array 49 8 17 1
"File: mp3_test.c    Assembler  Version HGASM0202      Page 26

   4  0035              #pragma debug array 49 8 17 1
   4  0035              #pragma debug variable 49 1 _Table2 "Table2"
   4  0035              	db 032h,030h,032h,034h,030h,031h,030h,031h,020h,059h
   4  003A              	db 054h,043h,068h,065h,06eh,067h,00h
   4  003E              public _Table1
   3  003E              #line 3 "d:\htk\mp3_test\mp3_test.c"
   3  003E              @crom	.section	'crom'
   3  003E              _Table1:
   3  003E              #pragma debug variable 49 1 _Table1 "Table1"
   3  003E              	db 059h,044h,041h,031h,036h,038h,065h,06ch,065h,063h
   3  0043              	db 074h,072h,06fh,06eh,069h,063h,00h
   3  0046              #pragma debug struct_end
   3  0046              #pragma debug struct_end
   3  0046              #pragma debug union_end
   3  0046              #pragma debug union_end
   3  0046              #pragma debug variable 51 1 ___intc0 "__intc0" 1
   3  0046              #pragma debug struct_end
   3  0046              #pragma debug struct_end
   3  0046              #pragma debug union_end
   3  0046              #pragma debug union_end
   3  0046              #pragma debug variable 53 1 ___intc1 "__intc1" 1
   3  0046              #pragma debug struct_end
   3  0046              #pragma debug struct_end
   3  0046              #pragma debug union_end
   3  0046              #pragma debug union_end
   3  0046              #pragma debug variable 55 1 ___intc3 "__intc3" 1
   3  0046              #pragma debug struct_end
   3  0046              #pragma debug struct_end
   3  0046              #pragma debug union_end
   3  0046              #pragma debug union_end
   3  0046              #pragma debug variable 57 1 ___pdc "__pdc" 1
   3  0046              #pragma debug struct_end
   3  0046              #pragma debug struct_end
   3  0046              #pragma debug union_end
   3  0046              #pragma debug union_end
   3  0046              #pragma debug variable 59 1 ___pfc "__pfc" 1
   3  0046              #pragma debug struct_end
   3  0046              #pragma debug struct_end
   3  0046              #pragma debug union_end
   3  0046              #pragma debug union_end
   3  0046              #pragma debug variable 61 1 ___pg "__pg" 1
   3  0046              #pragma debug struct_end
   3  0046              #pragma debug struct_end
   3  0046              #pragma debug union_end
   3  0046              #pragma debug union_end
   3  0046              #pragma debug variable 63 1 ___mfi0 "__mfi0" 1
   3  0046              #pragma debug struct_end
   3  0046              #pragma debug struct_end
   3  0046              #pragma debug union_end
   3  0046              #pragma debug union_end
   3  0046              #pragma debug variable 65 1 ___mfi5 "__mfi5" 1
   3  0046              #pragma debug struct_end
   3  0046              #pragma debug struct_end
   3  0046              #pragma debug union_end
   3  0046              #pragma debug union_end
   3  0046              #pragma debug variable 67 1 ___wdtc "__wdtc" 1
   3  0046              #pragma debug struct_end
   3  0046              #pragma debug struct_end
   3  0046              #pragma debug union_end
   3  0046              #pragma debug union_end
"File: mp3_test.c    Assembler  Version HGASM0202      Page 27

   3  0046              #pragma debug variable 69 1 ___stm0c0 "__stm0c0" 1
   3  0046              #pragma debug struct_end
   3  0046              #pragma debug struct_end
   3  0046              #pragma debug union_end
   3  0046              #pragma debug union_end
   3  0046              #pragma debug variable 71 1 ___stm0c1 "__stm0c1" 1
   3  0046              #pragma debug variable 8 1 ___stm0al "__stm0al" 1
   3  0046              #pragma debug variable 8 1 ___stm0ah "__stm0ah" 1
   3  0046              #pragma debug struct_end
   3  0046              #pragma debug struct_end
   3  0046              #pragma debug union_end
   3  0046              #pragma debug union_end
   3  0046              #pragma debug variable 73 1 ___u0sr "__u0sr" 1
   3  0046              #pragma debug struct_end
   3  0046              #pragma debug struct_end
   3  0046              #pragma debug union_end
   3  0046              #pragma debug union_end
   3  0046              #pragma debug variable 75 1 ___u0cr1 "__u0cr1" 1
   3  0046              #pragma debug struct_end
   3  0046              #pragma debug struct_end
   3  0046              #pragma debug union_end
   3  0046              #pragma debug union_end
   3  0046              #pragma debug variable 77 1 ___u0cr2 "__u0cr2" 1
   3  0046              #pragma debug variable 8 1 ___txr_rxr0 "__txr_rxr0" 1
   3  0046              #pragma debug variable 8 1 ___brg0 "__brg0" 1
   3  0046              #pragma debug struct_end
   3  0046              #pragma debug struct_end
   3  0046              #pragma debug union_end
   3  0046              #pragma debug union_end
   3  0046              #pragma debug variable 79 1 ___u1sr "__u1sr" 1
   3  0046              #pragma debug struct_end
   3  0046              #pragma debug struct_end
   3  0046              #pragma debug union_end
   3  0046              #pragma debug union_end
   3  0046              #pragma debug variable 81 1 ___u1cr1 "__u1cr1" 1
   3  0046              #pragma debug struct_end
   3  0046              #pragma debug struct_end
   3  0046              #pragma debug union_end
   3  0046              #pragma debug union_end
   3  0046              #pragma debug variable 83 1 ___u1cr2 "__u1cr2" 1
   3  0046              #pragma debug variable 8 1 ___txr_rxr1 "__txr_rxr1" 1
   3  0046              #pragma debug variable 8 1 ___brg1 "__brg1" 1
   3  0046              #pragma debug struct_end
   3  0046              #pragma debug struct_end
   3  0046              #pragma debug union_end
   3  0046              #pragma debug union_end
   3  0046              #pragma debug variable 85 1 ___pas1 "__pas1" 1
   3  0046              #pragma debug struct_end
   3  0046              #pragma debug struct_end
   3  0046              #pragma debug union_end
   3  0046              #pragma debug union_end
   3  0046              #pragma debug variable 87 1 ___pds0 "__pds0" 1
   3  0046              extern r1:byte
   3  0046              extern r2:byte
   3  0046              extern r3:byte
   3  0046              extern r4:byte
   3  0046              extern r5:byte
   3  0046              extern r6:byte
   3  0046              extern r7:byte
  62  0046              #line 62 "d:\htk\mp3_test\mp3_test.c"
"File: mp3_test.c    Assembler  Version HGASM0202      Page 28

  62  0000              @code .section at 0 'code'
  62  0000  1F0B        	clr bp
  62  0001  2800     R  	jmp _main_startup1
  62  0002              
  62  0002              extern _getkey4_2:byte
  62  0002              extern _getkey4:near
  62  0002              extern _delay_ms_2:byte
  62  0002              extern _delay_ms:near
  62  0002              extern _LCD_Reset:near
  62  0002              extern _LCD_Cmd:near
  62  0002              extern _LCD_Senddata:near
  62  0002              extern _LCD_Print_Str_2:byte
  62  0002              extern _LCD_Print_Str:near
  62  0002              extern _strlen_2:byte
  62  0002              extern _strlen:near
  62  0002              
  62  0002              ; 
  62  0002              ; Generated by holtek-gcc v3.19, Thu Aug 15 10:10:05 2024
  62  0002              ; Rebuild 718
  62  0002              ; end of file


        0 Errors, 0