"File: MP3_.c        Assembler  Version HGASM0202      Page 1


   1  0000              ; Generated by holtek-gcc v3.19, Wed Jun 26 10:47:32 2024
   2  0000              ; 
   3  0000              ; Configuration:
   4  0000              ;       with long instruction
   5  0000              ;       Multi-ROM, Multi-RAM
   6  0000              ;       bits_per_rom_unit:16
   7  0000              ;       with mp1
   8  0000              ;       with tbhp, address(0x9)
   9  0000              ;          Use tabrd-const
  10  0000              ;       
  11  0000              ; SFR address of long-instruction arch:
  12  0000              ;    mp0 = -1,1,0
  13  0000              ;    mp1 = 4,3,2
  14  0000              ;    mp2 = 14,13,12
  15  0000              ;    tbp = 9,7,8
  16  0000              ;    acc = 5
  17  0000              ;    pcl = 6
  18  0000              ;    status = 10
  19  0000              ;    bp = 11
  20  0000              ;    intc = 16
  21  0000              ;       
  22  0000              ;       
  23  0000              ; use 'tabrdc' instead of 'tabrd'
  24  0000              ;       
  25  0000              
  26  0000              #pragma translator "holtek-gcc 4.6.4" "3.19" "build 20130711"
  27  0000              ; Rebuild 718
  28  0000              
  29  0000              ir equ [2]
  30  0000              mp equ [3]
  31  0000              sbp equ [4]
  32  0000              acc equ [5]
  33  0000              bp equ [11]
  34  0000              tblp equ [7]
  35  0000              tbhp equ [9]
  36  0000              status equ [10]
  37  0000              c equ [10].0
  38  0000              ac equ [10].1
  39  0000              z equ [10].2
  40  0000              ov equ [10].3
  41  0000              cz equ [10].6
  42  0000              sc equ [10].7
  43  0000              intc equ [16]
  44  0000              mduwr0 equ [59h]
  45  0000              mduwr1 equ [5ah]
  46  0000              mduwr2 equ [5bh]
  47  0000              mduwr3 equ [5ch]
  48  0000              mduwr4 equ [5dh]
  49  0000              mduwr5 equ [5eh]
  50  0000              mduwrctrl equ [5fh]
  51  0000              
  52  0000              extern ra:byte
  53  0000              extern rb:byte
  54  0000              extern rc:byte
  55  0000              extern rd:byte
  56  0000              extern re:byte
  57  0000              extern rf:byte
  58  0000              extern rg:byte
  59  0000              extern rh:byte
"File: MP3_.ASM      Assembler  Version HGASM0202      Page 2

  60  0000              extern _Crom2Prom:near
  61  0000              extern _Crom2PromNext:near
  62  0000              
  63  0000              RAMBANK 0 @BITDATASEC, @BITDATASEC1
  64  0000              @HCCINIT	.section 'data'
  65  0000              @HCCINIT0	.section 'data'
  66  0000              @BITDATASEC	 .section 'data'
  67  0000              @BITDATASEC1	 .section 'data'
  68  0000              
  69  0000              #pragma debug scope 1 1
  70  0000              	extern __DELAY3:near
  71  0000              	extern __DELAYX3:near
  72  0000              	extern __DELAYX6:near
  73  0000              	extern __DELAYY5:near
  74  0000              	extern __DELAYY3:near
  75  0000              	extern _builtin_holtek_delay_2:byte
  76  0000              ___mfi0 equ [51]
  77  0000              public _ISR_STM0
  78  0000              #pragma debug scope 2 1

 116  0000              #line 116 "D:\HTK\mp3_test\MP3_.c"
 116  0000              rombank 0 @ISR_STM0_code
 116  0000              @ISR_STM0_code .section at 20 'code'
 116  0000  0080     E  	mov r1,a
 116  0001  070B        	mov a,bp
 116  0002  1F0B        	clr bp
 116  0003  2800     R  	jmp _ISR_STM0
 116  0004              ROMBANK 0 _ISR_STM0
 116  0004              #pragma debug scope 1 1
 116  0004              @dummy20 endp
 116  0004              #pragma debug scope 3 1
 116  0000              _ISR_STM0 .section 'code'
 116  0000              _ISR_STM0 proc
 116  0000  0080     E  	mov r2,a
 116  0001  070A        	mov a, status
 116  0002  0080     E  	mov r3,a
 117  0003              #line 117 "D:\HTK\mp3_test\MP3_.c"
 117  0003  1500     R  	deca _T100ms_cnt[0]
 117  0004  0080     E  	mov ra,a
 117  0005  0700     E  	mov a,ra
 117  0006  0080     R  	mov _T100ms_cnt[0],a
 117  0007  1080     E  	sz ra
 117  0008  2800     R  	jmp _L2
 119  0009              #line 119 "D:\HTK\mp3_test\MP3_.c"
 119  0009  0F28        	mov a,40
 119  000A  0080     R  	mov _T100ms_cnt[0],a
 120  000B              #line 120 "D:\HTK\mp3_test\MP3_.c"
 120  000B  3000     R  	set _T100ms_flag
 120  000C              _L2:
 122  000C              #line 122 "D:\HTK\mp3_test\MP3_.c"
 122  000C  1500     R  	deca _T250ms_cnt[0]
 122  000D  0080     E  	mov ra,a
 122  000E  0700     E  	mov a,ra
 122  000F  0080     R  	mov _T250ms_cnt[0],a
 122  0010  1080     E  	sz ra
 122  0011  2800     R  	jmp _L3
 124  0012              #line 124 "D:\HTK\mp3_test\MP3_.c"
 124  0012  0F64        	mov a,100
 124  0013  0080     R  	mov _T250ms_cnt[0],a
 125  0014              #line 125 "D:\HTK\mp3_test\MP3_.c"
"File: MP3_.c        Assembler  Version HGASM0202      Page 3

 125  0014  3000     R  	set _T250ms_flag
 125  0015              _L3:
 127  0015              #line 127 "D:\HTK\mp3_test\MP3_.c"
 127  0015  1500     R  	deca _T500ms_cnt[0]
 127  0016  0080     E  	mov ra,a
 127  0017  0700     E  	mov a,ra
 127  0018  0080     R  	mov _T500ms_cnt[0],a
 127  0019  1080     E  	sz ra
 127  001A  2800     R  	jmp _L4
 129  001B              #line 129 "D:\HTK\mp3_test\MP3_.c"
 129  001B  0FC8        	mov a,200
 129  001C  0080     R  	mov _T500ms_cnt[0],a
 130  001D              #line 130 "D:\HTK\mp3_test\MP3_.c"
 130  001D  3000     R  	set _T500ms_flag
 130  001E              _L4:
 132  001E              #line 132 "D:\HTK\mp3_test\MP3_.c"
 132  001E  0FFF        	mov a,255
 132  001F  0300     R  	add a,_T1s_cnt[0]
 132  0020  0080     E  	mov rb,a
 132  0021  0FFF        	mov a,255
 132  0022  1300     R  	adc a,_T1s_cnt[1]
 132  0023  0080     E  	mov rc,a
 132  0024  0700     E  	mov a,rb
 132  0025  0080     R  	mov _T1s_cnt[0],a
 132  0026  0700     E  	mov a,rc
 132  0027  0080     R  	mov _T1s_cnt[1],a
 132  0028  0700     E  	mov a,rb
 132  0029  0500     E  	or a,rc
 132  002A  390A        	snz z
 132  002B  2800     R  	jmp _L5
 134  002C              #line 134 "D:\HTK\mp3_test\MP3_.c"
 134  002C  0F90        	mov a,-112
 134  002D  0080     R  	mov _T1s_cnt[0],a
 134  002E  0F01        	mov a,1
 134  002F  0080     R  	mov _T1s_cnt[1],a
 135  0030              #line 135 "D:\HTK\mp3_test\MP3_.c"
 135  0030  3000     R  	set _T1s_flag
 135  0031              _L5:
 137  0031              #line 137 "D:\HTK\mp3_test\MP3_.c"
 137  0031  1500     R  	deca _T20ms_cnt[0]
 137  0032  0080     E  	mov ra,a
 137  0033  0700     E  	mov a,ra
 137  0034  0080     R  	mov _T20ms_cnt[0],a
 137  0035  1080     E  	sz ra
 137  0036  2800     R  	jmp _L6
 139  0037              #line 139 "D:\HTK\mp3_test\MP3_.c"
 139  0037  0F08        	mov a,8
 139  0038  0080     R  	mov _T20ms_cnt[0],a
 139  0039              _L6:
 142  0039              #line 142 "D:\HTK\mp3_test\MP3_.c"
 142  0039  37B3        	clr [51].7
 142  003A  0700     E  	mov a,r2
 142  003B  008B        	mov bp,a
 142  003C  0700     E  	mov a,r3
 142  003D  008A        	mov status,a
 142  003E  0700     E  	mov a,r1
 142  003F  0004        	reti
 142  0040              _ISR_STM0 endp
 142  0040              
 142  0040              #line 142 "D:\HTK\mp3_test\MP3_.c"
"File: MP3_.c        Assembler  Version HGASM0202      Page 4

 142  0040              #pragma debug scope 1 1
 142  0040              ___txr_rxr0 equ [275]
 142  0040              ___mfi5 equ [56]
 142  0040              public _UART0
 142  0040              #pragma debug scope 4 1
 146  0040              #line 146 "D:\HTK\mp3_test\MP3_.c"
 146  0040              rombank 0 @UART0_code
 146  0000              @UART0_code .section at 60 'code'
 146  0000  0080     E  	mov r1,a
 146  0001  070B        	mov a,bp
 146  0002  1F0B        	clr bp
 146  0003  2800     R  	jmp _UART0
 146  0004              ROMBANK 0 _UART0
 146  0004              #pragma debug scope 1 1
 146  0004              @dummy60 endp
 146  0004              #pragma debug scope 5 1
 146  0000              _UART0 .section 'code'
 146  0000              _UART0 proc
 146  0000  0080     E  	mov r2,a
 146  0001  070A        	mov a, status
 146  0002  0080     E  	mov r3,a
 146  0003  0703        	mov a,mp
 146  0004  0080     E  	mov r4,a
 146  0005  0704        	mov a,sbp
 146  0006  0080     E  	mov r5,a
 147  0007              #line 147 "D:\HTK\mp3_test\MP3_.c"
 147  0007  0700     R  	mov a,_RxDataLN[0]
 147  0008  0080     E  	mov ra,a
 147  0009  1400     E  	inca ra
 147  000A  0080     R  	mov _RxDataLN[0],a
 147  000B  0F00     R  	mov a,low offset _RxData
 147  000C  0300     E  	add a,ra
 147  000D  0083        	mov mp,a
 147  000E  0F00     R  	mov a,high offset _RxData
 147  000F  1F04        	clr sbp
 147  0010  1384        	adcm a,sbp
 147  0011  8713 0001   	lmov a,[275]
 147  0013  0082        	mov ir,a
 148  0014              #line 148 "D:\HTK\mp3_test\MP3_.c"
 148  0014  8713 0001   	lmov a,[275]
 148  0016  0A3D        	sub a,61
 148  0017  390A        	snz z
 148  0018  2800     R  	jmp _L9
 150  0019              #line 150 "D:\HTK\mp3_test\MP3_.c"
 150  0019  3000     R  	set _fgRx
 151  001A              #line 151 "D:\HTK\mp3_test\MP3_.c"
 151  001A  0F00     R  	mov a,low offset _RxData
 151  001B  0300     R  	add a,_RxDataLN[0]
 151  001C  0083        	mov mp,a
 151  001D  0F00     R  	mov a,high offset _RxData
 151  001E  1F04        	clr sbp
 151  001F  1384        	adcm a,sbp
 151  0020  0F00        	mov a,0
 151  0021  0082        	mov ir,a
 151  0022              _L9:
 153  0022              #line 153 "D:\HTK\mp3_test\MP3_.c"
 153  0022  3638        	clr [56].4
 153  0023  0700     E  	mov a,r2
 153  0024  008B        	mov bp,a
 153  0025  0700     E  	mov a,r3
"File: MP3_.c        Assembler  Version HGASM0202      Page 5

 153  0026  008A        	mov status,a
 153  0027  0700     E  	mov a,r4
 153  0028  0083        	mov mp,a
 153  0029  0700     E  	mov a,r5
 153  002A  0084        	mov sbp,a
 153  002B  0700     E  	mov a,r1
 153  002C  0004        	reti
 153  002D              _UART0 endp
 153  002D              
 153  002D              #line 153 "D:\HTK\mp3_test\MP3_.c"
 153  002D              #pragma debug scope 1 1
 153  002D              ___u0sr equ [272]
 153  002D              public _UART_Putch
 153  002D              #pragma debug scope 6 1
 231  002D              #line 231 "D:\HTK\mp3_test\MP3_.c"
 231  0000              _UART_Putch .section 'code'
 231  0000              _UART_Putch proc
 231  0000  00              local _UART_Putch_2 db 1 dup(?)	; 0,1
 231  0000  0080     E  	mov ra,a
 231  0001  0080     R  	mov _UART_Putch_2[0],a
 231  0002              #pragma debug variable 7 6 _UART_Putch_2+0 "UART_DATA"
 232  0002              #line 232 "D:\HTK\mp3_test\MP3_.c"
 232  0002  0700     E  	mov a,ra
 232  0003  8093 0001   	lmov [275],a
 232  0005              _L12:
 233  0005              #line 233 "D:\HTK\mp3_test\MP3_.c"
 233  0005  B810 0001   	lsnz [272].0
 233  0007  2800     R  	jmp _L12
 233  0008  0003        	ret
 233  0009              _UART_Putch endp
 233  0009              #line 233 "D:\HTK\mp3_test\MP3_.c"
 233  0009              #pragma debug scope 1 1
 233  0009              public _execute_CMD
 233  0009              #pragma debug scope 7 1
 201  0009              #line 201 "D:\HTK\mp3_test\MP3_.c"
 201  0000              _execute_CMD .section 'code'
 201  0000              _execute_CMD proc
 201  0000              public _execute_CMD_2
 201  0000  0005[           local _execute_CMD_2 db 5 dup(?)	; 2,3
            00
            ]
 201  0000  0080     E  	mov ra,a
 201  0001  0080     R  	mov _execute_CMD_2[2],a
 201  0002              #pragma debug variable 8 7 _execute_CMD_2+2 "CMD"
 201  0002              #pragma debug variable 8 7 _execute_CMD_2+0 "Par1"
 201  0002              #pragma debug variable 8 7 _execute_CMD_2+1 "Par2"
 205  0002              #line 205 "D:\HTK\mp3_test\MP3_.c"
 205  0002  0F7E        	mov a,126
 205  0003  0080     R  	mov _Command_line[0],a
 206  0004              #line 206 "D:\HTK\mp3_test\MP3_.c"
 206  0004  1F80     R  	set _Command_line[1]
 207  0005              #line 207 "D:\HTK\mp3_test\MP3_.c"
 207  0005  0F06        	mov a,6
 207  0006  0080     R  	mov _Command_line[2],a
 208  0007              #line 208 "D:\HTK\mp3_test\MP3_.c"
 208  0007  0700     E  	mov a,ra
 208  0008  0080     R  	mov _Command_line[3],a
 209  0009              #line 209 "D:\HTK\mp3_test\MP3_.c"
 209  0009  1F00     R  	clr _Command_line[4]
 210  000A              #line 210 "D:\HTK\mp3_test\MP3_.c"
"File: MP3_.c        Assembler  Version HGASM0202      Page 6

 210  000A  0700     R  	mov a,_execute_CMD_2[0]
 210  000B  0080     R  	mov _Command_line[5],a
 211  000C              #line 211 "D:\HTK\mp3_test\MP3_.c"
 211  000C  0700     R  	mov a,_execute_CMD_2[1]
 211  000D  0080     R  	mov _Command_line[6],a
 211  000E  0F06        	mov a,6
 211  000F  0080     E  	mov ra,a
 203  0010              #line 203 "D:\HTK\mp3_test\MP3_.c"
 203  0010  1F00     E  	clr rb
 203  0011  1F00     E  	clr rc
 214  0012              #line 214 "D:\HTK\mp3_test\MP3_.c"
 214  0012  0F01        	mov a,1
 214  0013  0080     E  	mov rd,a
 214  0014              _L15:
 216  0014              #line 216 "D:\HTK\mp3_test\MP3_.c"
 216  0014  0F00     R  	mov a,low offset _Command_line
 216  0015  0300     E  	add a,rd
 216  0016  0083        	mov mp,a
 216  0017  0F00     R  	mov a,high offset _Command_line
 216  0018  1F04        	clr sbp
 216  0019  1384        	adcm a,sbp
 216  001A              	fcall _Crom2Prom
 216  0021  0080     E  	mov re,a
 216  0022  0700     E  	mov a,re
 216  0023  0380     E  	addm a,rb
 216  0024  3C0A        	sz c
 216  0025  1480     E  	inc rc
 214  0026              #line 214 "D:\HTK\mp3_test\MP3_.c"
 214  0026  1480     E  	inc rd
 214  0027  1780     E  	sdz ra
 214  0028  2800     R  	jmp _L15
 218  0029              #line 218 "D:\HTK\mp3_test\MP3_.c"
 218  0029  0F00        	mov a,0
 218  002A  0280     E  	subm a,rb
 218  002B  0F00        	mov a,0
 218  002C  1280     E  	sbcm a,rc
 221  002D              #line 221 "D:\HTK\mp3_test\MP3_.c"
 221  002D  0700     E  	mov a,rc
 221  002E  0080     R  	mov _Command_line[7],a
 222  002F              #line 222 "D:\HTK\mp3_test\MP3_.c"
 222  002F  0700     E  	mov a,rb
 222  0030  0080     R  	mov _Command_line[8],a
 223  0031              #line 223 "D:\HTK\mp3_test\MP3_.c"
 223  0031  0FEF        	mov a,239
 223  0032  0080     R  	mov _Command_line[9],a
 223  0033  0F0A        	mov a,10
 223  0034  0080     R  	mov _execute_CMD_2[3],a
 225  0035              #line 225 "D:\HTK\mp3_test\MP3_.c"
 225  0035  1F00     R  	clr _execute_CMD_2[4]
 225  0036              _L17:
 227  0036              #line 227 "D:\HTK\mp3_test\MP3_.c"
 227  0036  0F00     R  	mov a,low offset _Command_line
 227  0037  0300     R  	add a,_execute_CMD_2[4]
 227  0038  0083        	mov mp,a
 227  0039  0F00     R  	mov a,high offset _Command_line
 227  003A  1F04        	clr sbp
 227  003B  1384        	adcm a,sbp
 227  003C              	fcall _Crom2Prom
 227  0043              	fcall _UART_Putch
 225  004A              #line 225 "D:\HTK\mp3_test\MP3_.c"
"File: MP3_.c        Assembler  Version HGASM0202      Page 7

 225  004A  1480     R  	inc _execute_CMD_2[4]
 225  004B  1780     R  	sdz _execute_CMD_2[3]
 225  004C  2800     R  	jmp _L17
 225  004D  0003        	ret
 225  004E              _execute_CMD endp
 225  004E              #line 225 "D:\HTK\mp3_test\MP3_.c"
 225  004E              #pragma debug scope 1 1
 225  004E              public _pause
 225  004E              #pragma debug scope 8 1
 161  004E              #line 161 "D:\HTK\mp3_test\MP3_.c"
 161  0000              _pause .section 'code'
 161  0000              _pause proc
 162  0000              #line 162 "D:\HTK\mp3_test\MP3_.c"
 162  0000  1F00     R  	clr _execute_CMD_2[1]
 162  0001  1F00     R  	clr _execute_CMD_2[0]
 162  0002  0F0E        	mov a,14
 162  0003              	fcall _execute_CMD
 163  000A              #line 163 "D:\HTK\mp3_test\MP3_.c"
 163  000A  0FF4        	mov a,-12
 163  000B  0080     E  	mov _delay_ms_2[0],a
 163  000C  0F01        	mov a,1
 163  000D  0080     E  	mov _delay_ms_2[1],a
 163  000E              	fcall _delay_ms
 163  0015  0003        	ret
 163  0016              _pause endp
 163  0016              #line 163 "D:\HTK\mp3_test\MP3_.c"
 163  0016              #pragma debug scope 1 1
 163  0016              public _play
 163  0016              #pragma debug scope 9 1
 166  0016              #line 166 "D:\HTK\mp3_test\MP3_.c"
 166  0000              _play .section 'code'
 166  0000              _play proc
 167  0000              #line 167 "D:\HTK\mp3_test\MP3_.c"
 167  0000  1F00     R  	clr _execute_CMD_2[1]
 167  0001  1F00     R  	clr _execute_CMD_2[0]
 167  0002  0F0D        	mov a,13
 167  0003              	fcall _execute_CMD
 168  000A              #line 168 "D:\HTK\mp3_test\MP3_.c"
 168  000A  0FF4        	mov a,-12
 168  000B  0080     E  	mov _delay_ms_2[0],a
 168  000C  0F01        	mov a,1
 168  000D  0080     E  	mov _delay_ms_2[1],a
 168  000E              	fcall _delay_ms
 168  0015  0003        	ret
 168  0016              _play endp
 168  0016              #line 168 "D:\HTK\mp3_test\MP3_.c"
 168  0016              #pragma debug scope 1 1
 168  0016              public _playNext
 168  0016              #pragma debug scope 10 1
 171  0016              #line 171 "D:\HTK\mp3_test\MP3_.c"
 171  0000              _playNext .section 'code'
 171  0000              _playNext proc
 172  0000              #line 172 "D:\HTK\mp3_test\MP3_.c"
 172  0000  0F01        	mov a,1
 172  0001  0080     R  	mov _execute_CMD_2[1],a
 172  0002  1F00     R  	clr _execute_CMD_2[0]
 172  0003  0F01        	mov a,1
 172  0004              	fcall _execute_CMD
 173  000B              #line 173 "D:\HTK\mp3_test\MP3_.c"
 173  000B  0FF4        	mov a,-12
"File: MP3_.c        Assembler  Version HGASM0202      Page 8

 173  000C  0080     E  	mov _delay_ms_2[0],a
 173  000D  0F01        	mov a,1
 173  000E  0080     E  	mov _delay_ms_2[1],a
 173  000F              	fcall _delay_ms
 173  0016  0003        	ret
 173  0017              _playNext endp
 173  0017              #line 173 "D:\HTK\mp3_test\MP3_.c"
 173  0017              #pragma debug scope 1 1
 173  0017              public _playPrevious
 173  0017              #pragma debug scope 11 1
 177  0017              #line 177 "D:\HTK\mp3_test\MP3_.c"
 177  0000              _playPrevious .section 'code'
 177  0000              _playPrevious proc
 178  0000              #line 178 "D:\HTK\mp3_test\MP3_.c"
 178  0000  0F01        	mov a,1
 178  0001  0080     R  	mov _execute_CMD_2[1],a
 178  0002  1F00     R  	clr _execute_CMD_2[0]
 178  0003  0F02        	mov a,2
 178  0004              	fcall _execute_CMD
 179  000B              #line 179 "D:\HTK\mp3_test\MP3_.c"
 179  000B  0FF4        	mov a,-12
 179  000C  0080     E  	mov _delay_ms_2[0],a
 179  000D  0F01        	mov a,1
 179  000E  0080     E  	mov _delay_ms_2[1],a
 179  000F              	fcall _delay_ms
 179  0016  0003        	ret
 179  0017              _playPrevious endp
 179  0017              #line 179 "D:\HTK\mp3_test\MP3_.c"
 179  0017              #pragma debug scope 1 1
 179  0017              public _voiceup
 179  0017              #pragma debug scope 12 1
 183  0017              #line 183 "D:\HTK\mp3_test\MP3_.c"
 183  0000              _voiceup .section 'code'
 183  0000              _voiceup proc
 184  0000              #line 184 "D:\HTK\mp3_test\MP3_.c"
 184  0000  0F01        	mov a,1
 184  0001  0080     R  	mov _execute_CMD_2[1],a
 184  0002  1F00     R  	clr _execute_CMD_2[0]
 184  0003  0F04        	mov a,4
 184  0004              	fcall _execute_CMD
 185  000B              #line 185 "D:\HTK\mp3_test\MP3_.c"
 185  000B  0FF4        	mov a,-12
 185  000C  0080     E  	mov _delay_ms_2[0],a
 185  000D  0F01        	mov a,1
 185  000E  0080     E  	mov _delay_ms_2[1],a
 185  000F              	fcall _delay_ms
 185  0016  0003        	ret
 185  0017              _voiceup endp
 185  0017              #line 185 "D:\HTK\mp3_test\MP3_.c"
 185  0017              #pragma debug scope 1 1
 185  0017              public _voicedown
 185  0017              #pragma debug scope 13 1
 189  0017              #line 189 "D:\HTK\mp3_test\MP3_.c"
 189  0000              _voicedown .section 'code'
 189  0000              _voicedown proc
 190  0000              #line 190 "D:\HTK\mp3_test\MP3_.c"
 190  0000  0F01        	mov a,1
 190  0001  0080     R  	mov _execute_CMD_2[1],a
 190  0002  1F00     R  	clr _execute_CMD_2[0]
 190  0003  0F05        	mov a,5
"File: MP3_.c        Assembler  Version HGASM0202      Page 9

 190  0004              	fcall _execute_CMD
 191  000B              #line 191 "D:\HTK\mp3_test\MP3_.c"
 191  000B  0FF4        	mov a,-12
 191  000C  0080     E  	mov _delay_ms_2[0],a
 191  000D  0F01        	mov a,1
 191  000E  0080     E  	mov _delay_ms_2[1],a
 191  000F              	fcall _delay_ms
 191  0016  0003        	ret
 191  0017              _voicedown endp
 191  0017              #line 191 "D:\HTK\mp3_test\MP3_.c"
 191  0017              #pragma debug scope 1 1
 191  0017              public _setVolume
 191  0017              #pragma debug scope 14 1
 195  0017              #line 195 "D:\HTK\mp3_test\MP3_.c"
 195  0000              _setVolume .section 'code'
 195  0000              _setVolume proc
 195  0000              public _setVolume_2
 195  0000  0002[           local _setVolume_2 db 2 dup(?)	; 2,0
            00
            ]
 195  0002              #pragma debug variable 11 14 _setVolume_2+0 "volume"
 196  0002              #line 196 "D:\HTK\mp3_test\MP3_.c"
 196  0000  0700     R  	mov a,_setVolume_2[0]
 196  0001  0080     R  	mov _execute_CMD_2[1],a
 196  0002  1F00     R  	clr _execute_CMD_2[0]
 196  0003  0F06        	mov a,6
 196  0004              	fcall _execute_CMD
 197  000B              #line 197 "D:\HTK\mp3_test\MP3_.c"
 197  000B  0FF4        	mov a,-12
 197  000C  0080     E  	mov _delay_ms_2[0],a
 197  000D  0F01        	mov a,1
 197  000E  0080     E  	mov _delay_ms_2[1],a
 197  000F              	fcall _delay_ms
 197  0016  0003        	ret
 197  0017              _setVolume endp
 197  0017              #line 197 "D:\HTK\mp3_test\MP3_.c"
 197  0017              #pragma debug scope 1 1
 197  0017              public _playFirst
 197  0017              #pragma debug scope 15 1
 156  0017              #line 156 "D:\HTK\mp3_test\MP3_.c"
 156  0000              _playFirst .section 'code'
 156  0000              _playFirst proc
 157  0000              #line 157 "D:\HTK\mp3_test\MP3_.c"
 157  0000  0F0F        	mov a,15
 157  0001  0080     R  	mov _setVolume_2[0],a
 157  0002  1F00     R  	clr _setVolume_2[1]
 157  0003              	fcall _setVolume
 158  000A              #line 158 "D:\HTK\mp3_test\MP3_.c"
 158  000A  0FF4        	mov a,-12
 158  000B  0080     E  	mov _delay_ms_2[0],a
 158  000C  0F01        	mov a,1
 158  000D  0080     E  	mov _delay_ms_2[1],a
 158  000E              	fcall _delay_ms
 158  0015  0003        	ret
 158  0016              _playFirst endp
 158  0016              #line 158 "D:\HTK\mp3_test\MP3_.c"
 158  0016              #pragma debug scope 1 1
 158  0016              public _UART_Getch
 158  0016              #pragma debug scope 16 1
 238  0016              #line 238 "D:\HTK\mp3_test\MP3_.c"
"File: MP3_.c        Assembler  Version HGASM0202      Page 10

 238  0000              _UART_Getch .section 'code'
 238  0000              _UART_Getch proc
 238  0000              _L28:
 240  0000              #line 240 "D:\HTK\mp3_test\MP3_.c"
 240  0000  B910 0001   	lsnz [272].2
 240  0002  2800     R  	jmp _L28
 242  0003              #line 242 "D:\HTK\mp3_test\MP3_.c"
 242  0003  8713 0001   	lmov a,[275]
 242  0005  0080     E  	mov ra,a
 244  0006              #line 244 "D:\HTK\mp3_test\MP3_.c"
 244  0006  0700     E  	mov a,ra
 244  0007  0003        	ret
 244  0008              _UART_Getch endp
 244  0008              #line 244 "D:\HTK\mp3_test\MP3_.c"
 244  0008              #pragma debug scope 1 1
 244  0008              ___pf equ [36]
 244  0008              ___pd equ [30]
 244  0008              public _LCD_Senddata
 244  0008              #pragma debug scope 17 1
 262  0008              #line 262 "D:\HTK\mp3_test\MP3_.c"
 262  0000              _LCD_Senddata .section 'code'
 262  0000              _LCD_Senddata proc
 262  0000  00              local _LCD_Senddata_2 db 1 dup(?)	; 0,1
 262  0000  0080     E  	mov ra,a
 262  0001  0080     R  	mov _LCD_Senddata_2[0],a
 262  0002              #pragma debug variable 8 17 _LCD_Senddata_2+0 "data"
 263  0002              #line 263 "D:\HTK\mp3_test\MP3_.c"
 263  0002  0700     E  	mov a,ra
 263  0003  00A4        	mov [36],a
 264  0004              #line 264 "D:\HTK\mp3_test\MP3_.c"
 264  0004  321E        	set [30].4
 264  0005  369E        	clr [30].5
 264  0006  331E        	set [30].6
 265  0007              #line 265 "D:\HTK\mp3_test\MP3_.c"
 265  0007  0F03        	mov a,3
 265  0008  0080     E  	mov _delay_ms_2[0],a
 265  0009  1F00     E  	clr _delay_ms_2[1]
 265  000A              	fcall _delay_ms
 266  0011              #line 266 "D:\HTK\mp3_test\MP3_.c"
 266  0011  371E        	clr [30].6
 266  0012  0003        	ret
 266  0013              _LCD_Senddata endp
 266  0013              #line 266 "D:\HTK\mp3_test\MP3_.c"
 266  0013              #pragma debug scope 1 1
 266  0013              public _LCD_Print_Str
 266  0013              #pragma debug scope 18 1
 256  0013              #line 256 "D:\HTK\mp3_test\MP3_.c"
 256  0000              _LCD_Print_Str .section 'code'
 256  0000              _LCD_Print_Str proc
 256  0000              public _LCD_Print_Str_2
 256  0000  0002[           local _LCD_Print_Str_2 db 2 dup(?)	; 2,0
            00
            ]
 256  0002              #pragma debug pointer 42 7 18
 256  0002              #pragma debug pointer 42 7 18
 256  0002              #pragma debug variable 42 18 _LCD_Print_Str_2+0 "p"
 257  0002              #line 257 "D:\HTK\mp3_test\MP3_.c"
 257  0000  2800     R  	jmp _L31
 257  0001              _L32:
 258  0001              #line 258 "D:\HTK\mp3_test\MP3_.c"
"File: MP3_.c        Assembler  Version HGASM0202      Page 11

 258  0001  1480     R  	inc _LCD_Print_Str_2[0]
 258  0002  3D0A        	sz z
 258  0003  1480     R  	inc _LCD_Print_Str_2[1]
 258  0004  0700     E  	mov a,ra
 258  0005              	fcall _LCD_Senddata
 258  000C              _L31:
 257  000C              #line 257 "D:\HTK\mp3_test\MP3_.c"
 257  000C  0700     R  	mov a,_LCD_Print_Str_2[0]
 257  000D  0083        	mov mp,a
 257  000E  0700     R  	mov a,_LCD_Print_Str_2[1]
 257  000F  0084        	mov sbp,a
 257  0010              	fcall _Crom2Prom
 257  0017  0080     E  	mov ra,a
 257  0018  1080     E  	sz ra
 257  0019  2800     R  	jmp _L32
 257  001A  0003        	ret
 257  001B              _LCD_Print_Str endp
 257  001B              #line 257 "D:\HTK\mp3_test\MP3_.c"
 257  001B              #pragma debug scope 1 1
 257  001B              public _LCD_Cmd
 257  001B              #pragma debug scope 19 1
 270  001B              #line 270 "D:\HTK\mp3_test\MP3_.c"
 270  0000              _LCD_Cmd .section 'code'
 270  0000              _LCD_Cmd proc
 270  0000  00              local _LCD_Cmd_2 db 1 dup(?)	; 0,1
 270  0000  0080     E  	mov ra,a
 270  0001  0080     R  	mov _LCD_Cmd_2[0],a
 270  0002              #pragma debug variable 8 19 _LCD_Cmd_2+0 "data"
 271  0002              #line 271 "D:\HTK\mp3_test\MP3_.c"
 271  0002  0700     E  	mov a,ra
 271  0003  00A4        	mov [36],a
 272  0004              #line 272 "D:\HTK\mp3_test\MP3_.c"
 272  0004  361E        	clr [30].4
 272  0005  369E        	clr [30].5
 272  0006  331E        	set [30].6
 273  0007              #line 273 "D:\HTK\mp3_test\MP3_.c"
 273  0007  0F03        	mov a,3
 273  0008  0080     E  	mov _delay_ms_2[0],a
 273  0009  1F00     E  	clr _delay_ms_2[1]
 273  000A              	fcall _delay_ms
 274  0011              #line 274 "D:\HTK\mp3_test\MP3_.c"
 274  0011  371E        	clr [30].6
 274  0012  0003        	ret
 274  0013              _LCD_Cmd endp
 274  0013              #line 274 "D:\HTK\mp3_test\MP3_.c"
 274  0013              #pragma debug scope 1 1
 274  0013              public _LCD_Reset
 274  0013              #pragma debug scope 20 1
 246  0013              #line 246 "D:\HTK\mp3_test\MP3_.c"
 246  0000              _LCD_Reset .section 'code'
 246  0000              _LCD_Reset proc
 248  0000              #line 248 "D:\HTK\mp3_test\MP3_.c"
 248  0000  0F38        	mov a,56
 248  0001              	fcall _LCD_Cmd
 250  0008              #line 250 "D:\HTK\mp3_test\MP3_.c"
 250  0008  0F0C        	mov a,12
 250  0009              	fcall _LCD_Cmd
 251  0010              #line 251 "D:\HTK\mp3_test\MP3_.c"
 251  0010  0F06        	mov a,6
 251  0011              	fcall _LCD_Cmd
"File: MP3_.c        Assembler  Version HGASM0202      Page 12

 252  0018              #line 252 "D:\HTK\mp3_test\MP3_.c"
 252  0018  0F01        	mov a,1
 252  0019              	fcall _LCD_Cmd
 253  0020              #line 253 "D:\HTK\mp3_test\MP3_.c"
 253  0020  0F02        	mov a,2
 253  0021              	fcall _LCD_Cmd
 253  0028  0003        	ret
 253  0029              _LCD_Reset endp
 253  0029              #line 253 "D:\HTK\mp3_test\MP3_.c"
 253  0029              #pragma debug scope 1 1
 253  0029              ___wdtc equ [62]
 253  0029              ___pfc equ [37]
 253  0029              ___pdc equ [31]
 253  0029              ___pas1 equ [334]
 253  0029              ___u0cr1 equ [273]
 253  0029              ___u0cr2 equ [274]
 253  0029              ___brg0 equ [276]
 253  0029              ___intc3 equ [19]
 253  0029              ___stm0c0 equ [78]
 253  0029              ___stm0c1 equ [79]
 253  0029              ___stm0ah equ [83]
 253  0029              ___stm0al equ [82]
 253  0029              ___intc1 equ [17]
 253  0029              ___intc0 equ [16]
 253  0029              public _main
 253  0029              #pragma debug scope 21 1
  58  0029              #line 58 "D:\HTK\mp3_test\MP3_.c"
  58  0029              IFDEF WITH_DEFAULT_STARTUP
  58  0029              extern _main_initial0:near
  58  0029              extern _main_startup:near
  58  0029              ENDIF
  58  0029              
  58  0029              ROMBANK 0 @start
  58  0000              @start .section com_l 'code'
  58  0000              _main_startup1:
  58  0000              @start .section com_e 'code'
  58  0000  0F00     R  	mov a,bank _main
  58  0001  008B        	mov bp,a
  58  0002  2800     R  	jmp _main
  58  0003              
  58  0000              _main .section 'code'
  58  0000              _main proc
  58  0000  0002[           local _main_2 db 2 dup(?)
            00
            ]
  59  0002              #line 59 "D:\HTK\mp3_test\MP3_.c"
  59  0000  0FAF        	mov a,175
  59  0001  00BE        	mov [62],a
  62  0002              #line 62 "D:\HTK\mp3_test\MP3_.c"
  62  0002  1F25        	clr [37]
  63  0003              #line 63 "D:\HTK\mp3_test\MP3_.c"
  63  0003  361F        	clr [31].4
  64  0004              #line 64 "D:\HTK\mp3_test\MP3_.c"
  64  0004  369F        	clr [31].5
  65  0005              #line 65 "D:\HTK\mp3_test\MP3_.c"
  65  0005  371F        	clr [31].6
  68  0006              #line 68 "D:\HTK\mp3_test\MP3_.c"
  68  0006  0FF0        	mov a,240
  68  0007  80CE 0001   	lmov [334],a
  69  0009              #line 69 "D:\HTK\mp3_test\MP3_.c"
"File: MP3_.c        Assembler  Version HGASM0202      Page 13

  69  0009  0F80        	mov a,128
  69  000A  8091 0001   	lmov [273],a
  70  000C              #line 70 "D:\HTK\mp3_test\MP3_.c"
  70  000C  0FE4        	mov a,228
  70  000D  8092 0001   	lmov [274],a
  74  000F              #line 74 "D:\HTK\mp3_test\MP3_.c"
  74  000F  0F33        	mov a,51
  74  0010  8094 0001   	lmov [276],a
  75  0012              #line 75 "D:\HTK\mp3_test\MP3_.c"
  75  0012  3193        	set [19].3
  75  0013  3038        	set [56].0
  77  0014              #line 77 "D:\HTK\mp3_test\MP3_.c"
  77  0014  1F4E        	clr [78]
  78  0015              #line 78 "D:\HTK\mp3_test\MP3_.c"
  78  0015  0FC1        	mov a,193
  78  0016  00CF        	mov [79],a
  79  0017              #line 79 "D:\HTK\mp3_test\MP3_.c"
  79  0017  0F27        	mov a,39
  79  0018  00D3        	mov [83],a
  80  0019              #line 80 "D:\HTK\mp3_test\MP3_.c"
  80  0019  0F10        	mov a,16
  80  001A  00D2        	mov [82],a
  81  001B              #line 81 "D:\HTK\mp3_test\MP3_.c"
  81  001B  3091        	set [17].1
  81  001C  31B3        	set [51].3
  83  001D              #line 83 "D:\HTK\mp3_test\MP3_.c"
  83  001D  3010        	set [16].0
  85  001E              #line 85 "D:\HTK\mp3_test\MP3_.c"
  85  001E              	fcall _LCD_Reset
  86  0025              #line 86 "D:\HTK\mp3_test\MP3_.c"
  86  0025  0F01        	mov a,1
  86  0026  0080     E  	mov _delay_ms_2[0],a
  86  0027  1F00     E  	clr _delay_ms_2[1]
  86  0028              	fcall _delay_ms
  87  002F              #line 87 "D:\HTK\mp3_test\MP3_.c"
  87  002F  0F80        	mov a,128
  87  0030              	fcall _LCD_Cmd
  88  0037              #line 88 "D:\HTK\mp3_test\MP3_.c"
  88  0037  0F01        	mov a,1
  88  0038  0080     E  	mov _delay_ms_2[0],a
  88  0039  1F00     E  	clr _delay_ms_2[1]
  88  003A              	fcall _delay_ms
  88  0041  0F10        	mov a,16
  88  0042  0080     R  	mov _main_2[0],a
  89  0043              #line 89 "D:\HTK\mp3_test\MP3_.c"
  89  0043  1F00     R  	clr _main_2[1]
  89  0044              _L37:
  90  0044              #line 90 "D:\HTK\mp3_test\MP3_.c"
  90  0044  0F00     R  	mov a,low offset _Table1
  90  0045  0300     R  	add a,_main_2[1]
  90  0046  0083        	mov mp,a
  90  0047  0F00     R  	mov a,high offset _Table1
  90  0048  1F04        	clr sbp
  90  0049  1384        	adcm a,sbp
  90  004A              	fcall _Crom2Prom
  90  0051              	fcall _LCD_Senddata
  89  0058              #line 89 "D:\HTK\mp3_test\MP3_.c"
  89  0058  1480     R  	inc _main_2[1]
  89  0059  1780     R  	sdz _main_2[0]
  89  005A  2800     R  	jmp _L37
"File: MP3_.c        Assembler  Version HGASM0202      Page 14

  92  005B              #line 92 "D:\HTK\mp3_test\MP3_.c"
  92  005B  0FC0        	mov a,192
  92  005C              	fcall _LCD_Cmd
  93  0063              #line 93 "D:\HTK\mp3_test\MP3_.c"
  93  0063  0F01        	mov a,1
  93  0064  0080     E  	mov _delay_ms_2[0],a
  93  0065  1F00     E  	clr _delay_ms_2[1]
  93  0066              	fcall _delay_ms
  93  006D  0F10        	mov a,16
  93  006E  0080     R  	mov _main_2[0],a
  94  006F              #line 94 "D:\HTK\mp3_test\MP3_.c"
  94  006F  1F00     R  	clr _main_2[1]
  94  0070              _L39:
  95  0070              #line 95 "D:\HTK\mp3_test\MP3_.c"
  95  0070  0F00     R  	mov a,low offset _Table2
  95  0071  0300     R  	add a,_main_2[1]
  95  0072  0083        	mov mp,a
  95  0073  0F00     R  	mov a,high offset _Table2
  95  0074  1F04        	clr sbp
  95  0075  1384        	adcm a,sbp
  95  0076              	fcall _Crom2Prom
  95  007D              	fcall _LCD_Senddata
  94  0084              #line 94 "D:\HTK\mp3_test\MP3_.c"
  94  0084  1480     R  	inc _main_2[1]
  94  0085  1780     R  	sdz _main_2[0]
  94  0086  2800     R  	jmp _L39
  96  0087              #line 96 "D:\HTK\mp3_test\MP3_.c"
  96  0087  0FB8        	mov a,-72
  96  0088  0080     E  	mov _delay_ms_2[0],a
  96  0089  0F0B        	mov a,11
  96  008A  0080     E  	mov _delay_ms_2[1],a
  96  008B              	fcall _delay_ms
  98  0092              #line 98 "D:\HTK\mp3_test\MP3_.c"
  98  0092  0F01        	mov a,1
  98  0093              	fcall _LCD_Cmd
  99  009A              #line 99 "D:\HTK\mp3_test\MP3_.c"
  99  009A  0F01        	mov a,1
  99  009B  0080     E  	mov _delay_ms_2[0],a
  99  009C  1F00     E  	clr _delay_ms_2[1]
  99  009D              	fcall _delay_ms
 100  00A4              #line 100 "D:\HTK\mp3_test\MP3_.c"
 100  00A4  0F80        	mov a,128
 100  00A5              	fcall _LCD_Cmd
 101  00AC              #line 101 "D:\HTK\mp3_test\MP3_.c"
 101  00AC  0700     R  	mov a,_Table3[0]
 101  00AD  0080     R  	mov _LCD_Print_Str_2[0],a
 101  00AE  0700     R  	mov a,_Table3[1]
 101  00AF  0080     R  	mov _LCD_Print_Str_2[1],a
 101  00B0              	fcall _LCD_Print_Str
 102  00B7              #line 102 "D:\HTK\mp3_test\MP3_.c"
 102  00B7  0FC0        	mov a,192
 102  00B8              	fcall _LCD_Cmd
 104  00BF              #line 104 "D:\HTK\mp3_test\MP3_.c"
 104  00BF              	fcall _playFirst
 105  00C6              #line 105 "D:\HTK\mp3_test\MP3_.c"
 105  00C6  0FD0        	mov a,-48
 105  00C7  0080     E  	mov _delay_ms_2[0],a
 105  00C8  0F07        	mov a,7
 105  00C9  0080     E  	mov _delay_ms_2[1],a
 105  00CA              	fcall _delay_ms
"File: MP3_.c        Assembler  Version HGASM0202      Page 15

 106  00D1              #line 106 "D:\HTK\mp3_test\MP3_.c"
 106  00D1              	fcall _play
 107  00D8              #line 107 "D:\HTK\mp3_test\MP3_.c"
 107  00D8  0FD0        	mov a,-48
 107  00D9  0080     E  	mov _delay_ms_2[0],a
 107  00DA  0F07        	mov a,7
 107  00DB  0080     E  	mov _delay_ms_2[1],a
 107  00DC              	fcall _delay_ms
 108  00E3              #line 108 "D:\HTK\mp3_test\MP3_.c"
 108  00E3              	fcall _playNext
 109  00EA              #line 109 "D:\HTK\mp3_test\MP3_.c"
 109  00EA  31CE        	set [78].3
 109  00EB              _L40:
 109  00EB  2800     R  	jmp _L40
 109  00EC  2800     R  	jmp $
 109  00ED              _main endp
 109  00ED              
 109  00ED              @dummy endp
 109  00ED              
 109  00ED              #line 109 "D:\HTK\mp3_test\MP3_.c"
 109  00ED              #pragma debug scope 1 1
 109  00ED              public _flash
 109  0000              @HCCINIT	.section 'data'
  54  0000              #line 54 "D:\HTK\mp3_test\MP3_.c"
  54  0000              @BITDATASEC .section 'data'
  54  0000  00          _flash	dbit 0
  54  0001              #pragma debug variable 2 1 _flash "flash"
  54  0001              public _T1s_flag
  53  0001              #line 53 "D:\HTK\mp3_test\MP3_.c"
  53  0001              @BITDATASEC .section 'data'
  53  0000              _T1s_flag	dbit 0
  53  0001              #pragma debug variable 2 1 _T1s_flag "T1s_flag"
  53  0001              public _T100ms_flag
  53  0001              #line 53 "D:\HTK\mp3_test\MP3_.c"
  53  0001              @BITDATASEC .section 'data'
  53  0000              _T100ms_flag	dbit 0
  53  0001              #pragma debug variable 2 1 _T100ms_flag "T100ms_flag"
  53  0001              public _T500ms_flag
  53  0001              #line 53 "D:\HTK\mp3_test\MP3_.c"
  53  0001              @BITDATASEC .section 'data'
  53  0000              _T500ms_flag	dbit 0
  53  0001              #pragma debug variable 2 1 _T500ms_flag "T500ms_flag"
  53  0001              public _T250ms_flag
  53  0001              #line 53 "D:\HTK\mp3_test\MP3_.c"
  53  0001              @BITDATASEC .section 'data'
  53  0000              _T250ms_flag	dbit 0
  53  0001              #pragma debug variable 2 1 _T250ms_flag "T250ms_flag"
  53  0001              public _T1s_cnt
  52  0001              #line 52 "D:\HTK\mp3_test\MP3_.c"
  52  0000              @HCCINIT_T1s_cnt .section 'data'
  52  0000              _T1s_cnt label byte
  52  0000              #pragma debug variable 12 1 _T1s_cnt "T1s_cnt"
  52  0000              	dw 400
  52  0000              @ROMDATA_BASE .section inpage 'code'
  52  0000  0190        	dc 400
  52  0002              @HCCINIT_T1s_cnt .section 'data'
  52  0002              public _T20ms_cnt
  51  0002              #line 51 "D:\HTK\mp3_test\MP3_.c"
  51  0000              @HCCINIT_T20ms_cnt .section 'data'
  51  0000              _T20ms_cnt label byte
"File: MP3_.c        Assembler  Version HGASM0202      Page 16

  51  0000              #pragma debug variable 8 1 _T20ms_cnt "T20ms_cnt"
  51  0000              	db 4
  51  0001              @ROMDATA_BASE .section inpage 'code'
  51  0001              	db 4
  51  0001              @HCCINIT_T20ms_cnt .section 'data'
  51  0001              public _T250ms_cnt
  51  0001              #line 51 "D:\HTK\mp3_test\MP3_.c"
  51  0000              @HCCINIT_T250ms_cnt .section 'data'
  51  0000              _T250ms_cnt label byte
  51  0000              #pragma debug variable 8 1 _T250ms_cnt "T250ms_cnt"
  51  0000              	db 100
  51  0002              @ROMDATA_BASE .section inpage 'code'
  51  0002              	db 100
  51  0001              @HCCINIT_T250ms_cnt .section 'data'
  51  0001              public _T100ms_cnt
  50  0001              #line 50 "D:\HTK\mp3_test\MP3_.c"
  50  0000              @HCCINIT_T100ms_cnt .section 'data'
  50  0000              _T100ms_cnt label byte
  50  0000              #pragma debug variable 8 1 _T100ms_cnt "T100ms_cnt"
  50  0000              	db 40
  50  0002              @ROMDATA_BASE .section inpage 'code'
  50  0002              	db 40
  50  0001              @HCCINIT_T100ms_cnt .section 'data'
  50  0001              public _T500ms_cnt
  50  0001              #line 50 "D:\HTK\mp3_test\MP3_.c"
  50  0000              @HCCINIT_T500ms_cnt .section 'data'
  50  0000              _T500ms_cnt label byte
  50  0000              #pragma debug variable 8 1 _T500ms_cnt "T500ms_cnt"
  50  0000              	db -56
  50  0003              @ROMDATA_BASE .section inpage 'code'
  50  0003              	db -56
  50  0001              @HCCINIT_T500ms_cnt .section 'data'
  50  0001              public _i
  49  0001              #line 49 "D:\HTK\mp3_test\MP3_.c"
  49  0000              @HCCINIT_i .section 'data'
  49  0000              _i label byte
  49  0000              #pragma debug variable 12 1 _i "i"
  49  0000              	dw 200
  49  0003              @ROMDATA_BASE .section inpage 'code'
  49  0003  00C8        	dc 200
  49  0002              @HCCINIT_i .section 'data'
  49  0002              public _Command_line
  28  0002              #line 28 "D:\HTK\mp3_test\MP3_.c"
  28  0000              @HCCINIT_Command_line .section 'data'
  28  0000              _Command_line label byte
  28  0000              #pragma debug array 43 8 10 1
  28  0000              #pragma debug array 43 8 10 1
  28  0000              #pragma debug variable 43 1 _Command_line "Command_line"
  28  0000              	db 0
  28  0004              @ROMDATA_BASE .section inpage 'code'
  28  0004              	db 0
  28  0001              @HCCINIT_Command_line .section 'data'
  28  0001              	db 0
  28  0005              @ROMDATA_BASE .section inpage 'code'
  28  0005              	db 0
  28  0002              @HCCINIT_Command_line .section 'data'
  28  0002              	db 0
  28  0005              @ROMDATA_BASE .section inpage 'code'
  28  0005              	db 0
  28  0003              @HCCINIT_Command_line .section 'data'
"File: MP3_.c        Assembler  Version HGASM0202      Page 17

  28  0003              	db 0
  28  0006              @ROMDATA_BASE .section inpage 'code'
  28  0006              	db 0
  28  0004              @HCCINIT_Command_line .section 'data'
  28  0004              	db 0
  28  0006              @ROMDATA_BASE .section inpage 'code'
  28  0006              	db 0
  28  0005              @HCCINIT_Command_line .section 'data'
  28  0005              	db 0
  28  0007              @ROMDATA_BASE .section inpage 'code'
  28  0007              	db 0
  28  0006              @HCCINIT_Command_line .section 'data'
  28  0006              	db 0
  28  0007              @ROMDATA_BASE .section inpage 'code'
  28  0007              	db 0
  28  0007              @HCCINIT_Command_line .section 'data'
  28  0007              	db 0
  28  0008              @ROMDATA_BASE .section inpage 'code'
  28  0008              	db 0
  28  0008              @HCCINIT_Command_line .section 'data'
  28  0008              	db 0
  28  0008              @ROMDATA_BASE .section inpage 'code'
  28  0008              	db 0
  28  0009              @HCCINIT_Command_line .section 'data'
  28  0009              	db 0
  28  0009              @ROMDATA_BASE .section inpage 'code'
  28  0009              	db 0
  28  000A              @HCCINIT_Command_line .section 'data'
  28  000A              public _fgRx
  27  000A              #line 27 "D:\HTK\mp3_test\MP3_.c"
  27  0001              @BITDATASEC .section 'data'
  27  0000              _fgRx	dbit 0
  27  0001              #pragma debug variable 2 1 _fgRx "fgRx"
  27  0001              public _RxDataLN
  26  0001              #line 26 "D:\HTK\mp3_test\MP3_.c"
  26  0000              @HCCINIT_RxDataLN .section 'data'
  26  0000              _RxDataLN label byte
  26  0000              #pragma debug variable 8 1 _RxDataLN "RxDataLN"
  26  0000              	db 0
  26  0009              @ROMDATA_BASE .section inpage 'code'
  26  0009              	db 0
  26  0001              @HCCINIT_RxDataLN .section 'data'
  26  0001              public _RxData
  25  0001              #line 25 "D:\HTK\mp3_test\MP3_.c"
  25  0000              @HCCINIT_RxData .section 'data'
  25  0000              _RxData label byte
  25  0000              #pragma debug array 44 8 32 1
  25  0000              #pragma debug array 44 8 32 1
  25  0000              #pragma debug variable 44 1 _RxData "RxData"
  25  0000              	db 32
  25  000A              @ROMDATA_BASE .section inpage 'code'
  25  000A              	db 32
  25  0001              @HCCINIT_RxData .section 'data'
  25  0001              	db 0
  25  000A              @ROMDATA_BASE .section inpage 'code'
  25  000A              	db 0
  25  0002              @HCCINIT_RxData .section 'data'
  25  0002              	db 0
  25  000B              @ROMDATA_BASE .section inpage 'code'
  25  000B              	db 0
"File: MP3_.c        Assembler  Version HGASM0202      Page 18

  25  0003              @HCCINIT_RxData .section 'data'
  25  0003              	db 0
  25  000B              @ROMDATA_BASE .section inpage 'code'
  25  000B              	db 0
  25  0004              @HCCINIT_RxData .section 'data'
  25  0004              	db 0
  25  000C              @ROMDATA_BASE .section inpage 'code'
  25  000C              	db 0
  25  0005              @HCCINIT_RxData .section 'data'
  25  0005              	db 0
  25  000C              @ROMDATA_BASE .section inpage 'code'
  25  000C              	db 0
  25  0006              @HCCINIT_RxData .section 'data'
  25  0006              	db 0
  25  000D              @ROMDATA_BASE .section inpage 'code'
  25  000D              	db 0
  25  0007              @HCCINIT_RxData .section 'data'
  25  0007              	db 0
  25  000D              @ROMDATA_BASE .section inpage 'code'
  25  000D              	db 0
  25  0008              @HCCINIT_RxData .section 'data'
  25  0008              	db 0
  25  000E              @ROMDATA_BASE .section inpage 'code'
  25  000E              	db 0
  25  0009              @HCCINIT_RxData .section 'data'
  25  0009              	db 0
  25  000E              @ROMDATA_BASE .section inpage 'code'
  25  000E              	db 0
  25  000A              @HCCINIT_RxData .section 'data'
  25  000A              	db 0
  25  000F              @ROMDATA_BASE .section inpage 'code'
  25  000F              	db 0
  25  000B              @HCCINIT_RxData .section 'data'
  25  000B              	db 0
  25  000F              @ROMDATA_BASE .section inpage 'code'
  25  000F              	db 0
  25  000C              @HCCINIT_RxData .section 'data'
  25  000C              	db 0
  25  0010              @ROMDATA_BASE .section inpage 'code'
  25  0010              	db 0
  25  000D              @HCCINIT_RxData .section 'data'
  25  000D              	db 0
  25  0010              @ROMDATA_BASE .section inpage 'code'
  25  0010              	db 0
  25  000E              @HCCINIT_RxData .section 'data'
  25  000E              	db 0
  25  0011              @ROMDATA_BASE .section inpage 'code'
  25  0011              	db 0
  25  000F              @HCCINIT_RxData .section 'data'
  25  000F              	db 0
  25  0011              @ROMDATA_BASE .section inpage 'code'
  25  0011              	db 0
  25  0010              @HCCINIT_RxData .section 'data'
  25  0010              	db 0
  25  0012              @ROMDATA_BASE .section inpage 'code'
  25  0012              	db 0
  25  0011              @HCCINIT_RxData .section 'data'
  25  0011              	db 0
  25  0012              @ROMDATA_BASE .section inpage 'code'
  25  0012              	db 0
"File: MP3_.c        Assembler  Version HGASM0202      Page 19

  25  0012              @HCCINIT_RxData .section 'data'
  25  0012              	db 0
  25  0013              @ROMDATA_BASE .section inpage 'code'
  25  0013              	db 0
  25  0013              @HCCINIT_RxData .section 'data'
  25  0013              	db 0
  25  0013              @ROMDATA_BASE .section inpage 'code'
  25  0013              	db 0
  25  0014              @HCCINIT_RxData .section 'data'
  25  0014              	db 0
  25  0014              @ROMDATA_BASE .section inpage 'code'
  25  0014              	db 0
  25  0015              @HCCINIT_RxData .section 'data'
  25  0015              	db 0
  25  0014              @ROMDATA_BASE .section inpage 'code'
  25  0014              	db 0
  25  0016              @HCCINIT_RxData .section 'data'
  25  0016              	db 0
  25  0015              @ROMDATA_BASE .section inpage 'code'
  25  0015              	db 0
  25  0017              @HCCINIT_RxData .section 'data'
  25  0017              	db 0
  25  0015              @ROMDATA_BASE .section inpage 'code'
  25  0015              	db 0
  25  0018              @HCCINIT_RxData .section 'data'
  25  0018              	db 0
  25  0016              @ROMDATA_BASE .section inpage 'code'
  25  0016              	db 0
  25  0019              @HCCINIT_RxData .section 'data'
  25  0019              	db 0
  25  0016              @ROMDATA_BASE .section inpage 'code'
  25  0016              	db 0
  25  001A              @HCCINIT_RxData .section 'data'
  25  001A              	db 0
  25  0017              @ROMDATA_BASE .section inpage 'code'
  25  0017              	db 0
  25  001B              @HCCINIT_RxData .section 'data'
  25  001B              	db 0
  25  0017              @ROMDATA_BASE .section inpage 'code'
  25  0017              	db 0
  25  001C              @HCCINIT_RxData .section 'data'
  25  001C              	db 0
  25  0018              @ROMDATA_BASE .section inpage 'code'
  25  0018              	db 0
  25  001D              @HCCINIT_RxData .section 'data'
  25  001D              	db 0
  25  0018              @ROMDATA_BASE .section inpage 'code'
  25  0018              	db 0
  25  001E              @HCCINIT_RxData .section 'data'
  25  001E              	db 0
  25  0019              @ROMDATA_BASE .section inpage 'code'
  25  0019              	db 0
  25  001F              @HCCINIT_RxData .section 'data'
  25  001F              	db 0
  25  0019              @ROMDATA_BASE .section inpage 'code'
  25  0019              	db 0
  25  0020              @HCCINIT_RxData .section 'data'
  25  0020              public _Table13
  25  0000              @crom	.section 'crom'
  25  0000              _LC0:
"File: MP3_.c        Assembler  Version HGASM0202      Page 20

  25  0000              	db 020h,020h,020h,020h,050h,072h,065h,069h,020h,04fh
  25  0005              	db 06eh,065h,02eh,020h,020h,020h,020h,00h
  25  0000              @HCCINIT	.section 'data'
  10  0000              #line 10 "D:\HTK\mp3_test\MP3_.c"
  10  0000              @HCCINIT_Table13 .section 'data'
  10  0000              _Table13 label byte
  10  0000              #pragma debug pointer 45 8 1
  10  0000              #pragma debug pointer 45 8 1
  10  0000              #pragma debug variable 45 1 _Table13 "Table13"
  10  0000              	dw offset _LC0
  10  001A              @ROMDATA_BASE .section inpage 'code'
  10  001A  0000     R  	dc offset _LC0
  10  0002              @HCCINIT_Table13 .section 'data'
  10  0002              public _Table12
  10  0009              @crom	.section 'crom'
  10  0009              _LC1:
  10  0009              	db 020h,020h,020h,020h,04eh,065h,078h,074h,020h,04fh
  10  000E              	db 06eh,065h,02eh,020h,020h,020h,020h,00h
  10  0000              @HCCINIT	.section 'data'
   9  0000              #line 9 "D:\HTK\mp3_test\MP3_.c"
   9  0000              @HCCINIT_Table12 .section 'data'
   9  0000              _Table12 label byte
   9  0000              #pragma debug variable 45 1 _Table12 "Table12"
   9  0000              	dw offset _LC1
   9  001B              @ROMDATA_BASE .section inpage 'code'
   9  001B  0000     R  	dc offset _LC1
   9  0002              @HCCINIT_Table12 .section 'data'
   9  0002              public _Table11
   9  0012              @crom	.section 'crom'
   9  0012              _LC2:
   9  0012              	db 020h,020h,056h,06fh,069h,063h,065h,020h,044h,06fh
   9  0017              	db 077h,06eh,02eh,020h,020h,020h,020h,00h
   9  0000              @HCCINIT	.section 'data'
   8  0000              #line 8 "D:\HTK\mp3_test\MP3_.c"
   8  0000              @HCCINIT_Table11 .section 'data'
   8  0000              _Table11 label byte
   8  0000              #pragma debug variable 45 1 _Table11 "Table11"
   8  0000              	dw offset _LC2
   8  001C              @ROMDATA_BASE .section inpage 'code'
   8  001C  0000     R  	dc offset _LC2
   8  0002              @HCCINIT_Table11 .section 'data'
   8  0002              public _Table10
   8  001B              @crom	.section 'crom'
   8  001B              _LC3:
   8  001B              	db 020h,020h,020h,020h,056h,06fh,069h,063h,065h,020h
   8  0020              	db 055h,070h,02eh,020h,020h,020h,020h,00h
   8  0000              @HCCINIT	.section 'data'
   7  0000              #line 7 "D:\HTK\mp3_test\MP3_.c"
   7  0000              @HCCINIT_Table10 .section 'data'
   7  0000              _Table10 label byte
   7  0000              #pragma debug variable 45 1 _Table10 "Table10"
   7  0000              	dw offset _LC3
   7  001D              @ROMDATA_BASE .section inpage 'code'
   7  001D  0000     R  	dc offset _LC3
   7  0002              @HCCINIT_Table10 .section 'data'
   7  0002              public _num
   7  0024              @crom	.section 'crom'
   6  0024              #line 6 "D:\HTK\mp3_test\MP3_.c"
   6  0024              @crom	.section	'crom'
   6  0024              _num:
"File: MP3_.c        Assembler  Version HGASM0202      Page 21

   6  0024              #pragma debug array 46 8 11 1
   6  0024              #pragma debug array 46 8 11 1
   6  0024              #pragma debug variable 46 1 _num "num"
   6  0024              	db 030h,031h,032h,033h,034h,035h,036h,037h,038h,039h
   6  0029              	db 00h
   6  002A              public _Table3
   6  002A              @crom	.section 'crom'
   6  002A              _LC4:
   6  002A              	db 059h,044h,041h,031h,036h,038h,020h,045h,04ch,045h
   6  002F              	db 020h,074h,065h,073h,074h,00h
   6  0000              @HCCINIT	.section 'data'
   5  0000              #line 5 "D:\HTK\mp3_test\MP3_.c"
   5  0000              @HCCINIT_Table3 .section 'data'
   5  0000              _Table3 label byte
   5  0000              #pragma debug variable 45 1 _Table3 "Table3"
   5  0000              	dw offset _LC4
   5  001E              @ROMDATA_BASE .section inpage 'code'
   5  001E  0000     R  	dc offset _LC4
   5  0002              @HCCINIT_Table3 .section 'data'
   5  0002              public _Table2
   5  0032              @crom	.section 'crom'
   4  0032              #line 4 "D:\HTK\mp3_test\MP3_.c"
   4  0032              @crom	.section	'crom'
   4  0032              _Table2:
   4  0032              #pragma debug array 47 8 17 1
   4  0032              #pragma debug array 47 8 17 1
   4  0032              #pragma debug variable 47 1 _Table2 "Table2"
   4  0032              	db 032h,030h,032h,034h,030h,031h,030h,031h,020h,059h
   4  0037              	db 054h,043h,068h,065h,06eh,067h,00h
   4  003A              public _Table1
   3  003A              #line 3 "D:\HTK\mp3_test\MP3_.c"
   3  003A              @crom	.section	'crom'
   3  003A              _Table1:
   3  003A              #pragma debug variable 47 1 _Table1 "Table1"
   3  003A              	db 059h,044h,041h,031h,036h,038h,065h,06ch,065h,063h
   3  003F              	db 074h,072h,06fh,06eh,069h,063h,00h
   3  0043              #pragma debug struct_end
   3  0043              #pragma debug struct_end
   3  0043              #pragma debug union_end
   3  0043              #pragma debug union_end
   3  0043              #pragma debug variable 49 1 ___intc0 "__intc0" 1
   3  0043              #pragma debug struct_end
   3  0043              #pragma debug struct_end
   3  0043              #pragma debug union_end
   3  0043              #pragma debug union_end
   3  0043              #pragma debug variable 51 1 ___intc1 "__intc1" 1
   3  0043              #pragma debug struct_end
   3  0043              #pragma debug struct_end
   3  0043              #pragma debug union_end
   3  0043              #pragma debug union_end
   3  0043              #pragma debug variable 53 1 ___intc3 "__intc3" 1
   3  0043              #pragma debug struct_end
   3  0043              #pragma debug struct_end
   3  0043              #pragma debug union_end
   3  0043              #pragma debug union_end
   3  0043              #pragma debug variable 55 1 ___pd "__pd" 1
   3  0043              #pragma debug struct_end
   3  0043              #pragma debug struct_end
   3  0043              #pragma debug union_end
   3  0043              #pragma debug union_end
"File: MP3_.c        Assembler  Version HGASM0202      Page 22

   3  0043              #pragma debug variable 57 1 ___pdc "__pdc" 1
   3  0043              #pragma debug struct_end
   3  0043              #pragma debug struct_end
   3  0043              #pragma debug union_end
   3  0043              #pragma debug union_end
   3  0043              #pragma debug variable 59 1 ___pf "__pf" 1
   3  0043              #pragma debug struct_end
   3  0043              #pragma debug struct_end
   3  0043              #pragma debug union_end
   3  0043              #pragma debug union_end
   3  0043              #pragma debug variable 61 1 ___pfc "__pfc" 1
   3  0043              #pragma debug struct_end
   3  0043              #pragma debug struct_end
   3  0043              #pragma debug union_end
   3  0043              #pragma debug union_end
   3  0043              #pragma debug variable 63 1 ___mfi0 "__mfi0" 1
   3  0043              #pragma debug struct_end
   3  0043              #pragma debug struct_end
   3  0043              #pragma debug union_end
   3  0043              #pragma debug union_end
   3  0043              #pragma debug variable 65 1 ___mfi5 "__mfi5" 1
   3  0043              #pragma debug struct_end
   3  0043              #pragma debug struct_end
   3  0043              #pragma debug union_end
   3  0043              #pragma debug union_end
   3  0043              #pragma debug variable 67 1 ___wdtc "__wdtc" 1
   3  0043              #pragma debug struct_end
   3  0043              #pragma debug struct_end
   3  0043              #pragma debug union_end
   3  0043              #pragma debug union_end
   3  0043              #pragma debug variable 69 1 ___stm0c0 "__stm0c0" 1
   3  0043              #pragma debug struct_end
   3  0043              #pragma debug struct_end
   3  0043              #pragma debug union_end
   3  0043              #pragma debug union_end
   3  0043              #pragma debug variable 71 1 ___stm0c1 "__stm0c1" 1
   3  0043              #pragma debug variable 8 1 ___stm0al "__stm0al" 1
   3  0043              #pragma debug variable 8 1 ___stm0ah "__stm0ah" 1
   3  0043              #pragma debug struct_end
   3  0043              #pragma debug struct_end
   3  0043              #pragma debug union_end
   3  0043              #pragma debug union_end
   3  0043              #pragma debug variable 73 1 ___u0sr "__u0sr" 1
   3  0043              #pragma debug struct_end
   3  0043              #pragma debug struct_end
   3  0043              #pragma debug union_end
   3  0043              #pragma debug union_end
   3  0043              #pragma debug variable 75 1 ___u0cr1 "__u0cr1" 1
   3  0043              #pragma debug struct_end
   3  0043              #pragma debug struct_end
   3  0043              #pragma debug union_end
   3  0043              #pragma debug union_end
   3  0043              #pragma debug variable 77 1 ___u0cr2 "__u0cr2" 1
   3  0043              #pragma debug variable 8 1 ___txr_rxr0 "__txr_rxr0" 1
   3  0043              #pragma debug variable 8 1 ___brg0 "__brg0" 1
   3  0043              #pragma debug struct_end
   3  0043              #pragma debug struct_end
   3  0043              #pragma debug union_end
   3  0043              #pragma debug union_end
   3  0043              #pragma debug variable 79 1 ___pas1 "__pas1" 1
"File: MP3_.c        Assembler  Version HGASM0202      Page 23

   3  0043              extern r1:byte
   3  0043              extern r2:byte
   3  0043              extern r3:byte
   3  0043              extern r4:byte
   3  0043              extern r5:byte
  58  0043              #line 58 "D:\HTK\mp3_test\MP3_.c"
  58  0000              @code .section at 0 'code'
  58  0000  1F0B        	clr bp
  58  0001  2800     R  	jmp _main_startup1
  58  0002              
  58  0002              extern _delay_ms_2:byte
  58  0002              extern _delay_ms:near
  58  0002              
  58  0002              ; 
  58  0002              ; Generated by holtek-gcc v3.19, Wed Jun 26 10:47:32 2024
  58  0002              ; Rebuild 718
  58  0002              ; end of file


        0 Errors, 0