"File: utils.c       Assembler  Version HGASM0202      Page 1


   1  0000              ; Generated by holtek-gcc v3.19, Thu Aug 15 10:10:05 2024
   2  0000              ; 
   3  0000              ; Configuration:
   4  0000              ;       with long instruction
   5  0000              ;       Multi-ROM, Multi-RAM
   6  0000              ;       bits_per_rom_unit:16
   7  0000              ;       with mp1
   8  0000              ;       with tbhp, address(0x9)
   9  0000              ;          Use tabrd-const
  10  0000              ;       
  11  0000              ; SFR address of long-instruction arch:
  12  0000              ;    mp0 = -1,1,0
  13  0000              ;    mp1 = 4,3,2
  14  0000              ;    mp2 = 14,13,12
  15  0000              ;    tbp = 9,7,8
  16  0000              ;    acc = 5
  17  0000              ;    pcl = 6
  18  0000              ;    status = 10
  19  0000              ;    bp = 11
  20  0000              ;    intc = 16
  21  0000              ;       
  22  0000              ;       
  23  0000              ; use 'tabrdc' instead of 'tabrd'
  24  0000              ;       
  25  0000              
  26  0000              #pragma translator "holtek-gcc 4.6.4" "3.19" "build 20130711"
  27  0000              ; Rebuild 718
  28  0000              
  29  0000              ir equ [2]
  30  0000              mp equ [3]
  31  0000              sbp equ [4]
  32  0000              acc equ [5]
  33  0000              bp equ [11]
  34  0000              tblp equ [7]
  35  0000              tbhp equ [9]
  36  0000              status equ [10]
  37  0000              c equ [10].0
  38  0000              ac equ [10].1
  39  0000              z equ [10].2
  40  0000              ov equ [10].3
  41  0000              cz equ [10].6
  42  0000              sc equ [10].7
  43  0000              intc equ [16]
  44  0000              mduwr0 equ [59h]
  45  0000              mduwr1 equ [5ah]
  46  0000              mduwr2 equ [5bh]
  47  0000              mduwr3 equ [5ch]
  48  0000              mduwr4 equ [5dh]
  49  0000              mduwr5 equ [5eh]
  50  0000              mduwrctrl equ [5fh]
  51  0000              
  52  0000              extern ra:byte
  53  0000              extern rb:byte
  54  0000              extern rc:byte
  55  0000              extern rd:byte
  56  0000              extern re:byte
  57  0000              extern rf:byte
  58  0000              extern rg:byte
  59  0000              extern rh:byte
"File: utils.ASM     Assembler  Version HGASM0202      Page 2

  60  0000              extern _Crom2Prom:near
  61  0000              extern _Crom2PromNext:near
  62  0000              
  63  0000              RAMBANK 0 @BITDATASEC, @BITDATASEC1
  64  0000              @HCCINIT	.section 'data'
  65  0000              @HCCINIT0	.section 'data'
  66  0000              @BITDATASEC	 .section 'data'
  67  0000              @BITDATASEC1	 .section 'data'
  68  0000              
  69  0000              #pragma debug scope 1 1
  70  0000              	extern __DELAY3:near
  71  0000              	extern __DELAYX3:near
  72  0000              	extern __DELAYX6:near
  73  0000              	extern __DELAYY5:near
  74  0000              	extern __DELAYY3:near
  75  0000              	extern _builtin_holtek_delay_2:byte
  76  0000              ___pg equ [39]
  77  0000              public _getkey
  78  0000              #pragma debug scope 2 1

   4  0000              #line 4 "d:\htk\mp3_test\utils.c"
   4  0000              _getkey .section 'code'
   4  0000              _getkey proc
   4  0000  0002[           local _getkey_2 db 2 dup(?)	; 0,2
            00
            ]
   4  0000  0080     R  	mov _getkey_2[0],a
   4  0001              #pragma debug variable 8 2 _getkey_2+0 "k"
   4  0001              #pragma debug variable 8 2 _getkey_2+1 "tmp1"
   6  0001              #line 6 "d:\htk\mp3_test\utils.c"
   6  0001  0727        	mov a,[39]
   6  0002  0E0F        	and a,15
   6  0003  0080     R  	mov _getkey_2[1],a
   8  0004              #line 8 "d:\htk\mp3_test\utils.c"
   8  0004  0700     R  	mov a,_getkey_2[1]
   8  0005  0A0F        	sub a,15
   8  0006  3D0A        	sz z
   8  0007  2800     R  	jmp _L2
   9  0008              #line 9 "d:\htk\mp3_test\utils.c"
   9  0008  1080     R  	sz _test[0]
   9  0009  2800     R  	jmp _L7
  11  000A              #line 11 "d:\htk\mp3_test\utils.c"
  11  000A  0727        	mov a,[39]
  11  000B  0080     E  	mov ra,a
  12  000C              #line 12 "d:\htk\mp3_test\utils.c"
  12  000C  0F01        	mov a,1
  12  000D  0080     R  	mov _test[0],a
  13  000E              #line 13 "d:\htk\mp3_test\utils.c"
  13  000E  0700     R  	mov a,_getkey_2[1]
  13  000F  0200     E  	sub a,ra
  13  0010  390A        	snz z
  13  0011  2800     R  	jmp _L7
  13  0012  2800     R  	jmp _L9
  13  0013              _L2:
  16  0013              #line 16 "d:\htk\mp3_test\utils.c"
  16  0013  1F00     R  	clr _test[0]
  16  0014              _L7:
  17  0014              #line 17 "d:\htk\mp3_test\utils.c"
  17  0014  0700     R  	mov a,_getkey_2[0]
  17  0015  0080     E  	mov ra,a
"File: utils.c       Assembler  Version HGASM0202      Page 3

  17  0016  2800     R  	jmp _L4
  17  0017              _L9:
  17  0017  0700     R  	mov a,_getkey_2[1]
  17  0018  0080     E  	mov ra,a
  17  0019              _L4:
  18  0019              #line 18 "d:\htk\mp3_test\utils.c"
  18  0019  0700     E  	mov a,ra
  18  001A  0003        	ret
  18  001B              _getkey endp
  18  001B              #line 18 "d:\htk\mp3_test\utils.c"
  18  001B              #pragma debug scope 1 1
  18  001B              public _delay_ms
  18  001B              #pragma debug scope 3 1
  20  001B              #line 20 "d:\htk\mp3_test\utils.c"
  20  0000              _delay_ms .section 'code'
  20  0000              _delay_ms proc
  20  0000              public _delay_ms_2
  20  0000  0002[           local _delay_ms_2 db 2 dup(?)	; 2,0
            00
            ]
  20  0002              #pragma debug variable 12 3 _delay_ms_2+0 "del"
  22  0002              #line 22 "d:\htk\mp3_test\utils.c"
  22  0000  1F00     E  	clr rb
  22  0001  1F00     E  	clr rc
  22  0002  2800     R  	jmp _L11
  22  0003              _L12:
  23  0003              #line 23 "d:\htk\mp3_test\utils.c"
  23  0003              ;# 23 "d:\htk\mp3_test\utils.c" 1
  23  0003              	IF 2000>263690
  23  0003              ;# 23 "d:\htk\mp3_test\utils.c" 1
  23  0003              	ERRMESSAGE 'the value 2000of the argument exceeds the maxinum 263690'
  23  0003              	ENDIF
  23  0003              ;# 23 "d:\htk\mp3_test\utils.c" 1
  23  0003              	IF 2000<0
  23  0003              ;# 23 "d:\htk\mp3_test\utils.c" 1
  23  0003              	ERRMESSAGE 'the value 2000 of the argument exceeds the mininum 0'
  23  0003              	ENDIF
  23  0003              ;# 23 "d:\htk\mp3_test\utils.c" 1
  23  0003              	IF 2000==0
  23  0003              ;# 23 "d:\htk\mp3_test\utils.c" 1
  23  0003              	JMP $
  23  0003              	ENDIF
  23  0003              ;# 23 "d:\htk\mp3_test\utils.c" 1
  23  0003              	IF (2000>=1) AND (2000<( 4 + __PBP__ * 2))
  23  0003              ;# 23 "d:\htk\mp3_test\utils.c" 1
  23  0003              	NOP
  23  0003              	ENDIF
  23  0003              ;# 23 "d:\htk\mp3_test\utils.c" 1
  23  0003              	IF (2000>=2) AND (2000<( 4 + __PBP__ * 2))
  23  0003              ;# 23 "d:\htk\mp3_test\utils.c" 1
  23  0003              	NOP
  23  0003              	ENDIF
  23  0003              ;# 23 "d:\htk\mp3_test\utils.c" 1
  23  0003              	IF (2000>=3) AND (2000<( 4 + __PBP__ * 2))
  23  0003              ;# 23 "d:\htk\mp3_test\utils.c" 1
  23  0003              	NOP
  23  0003              	ENDIF
  23  0003              ;# 23 "d:\htk\mp3_test\utils.c" 1
  23  0003              	IF (2000>=4) AND (2000<( 4 + __PBP__ * 2)) AND ( __PBP__ > 0 )
  23  0003              ;# 23 "d:\htk\mp3_test\utils.c" 1
"File: utils.c       Assembler  Version HGASM0202      Page 4

  23  0003              	NOP
  23  0003              	ENDIF
  23  0003              ;# 23 "d:\htk\mp3_test\utils.c" 1
  23  0003              	IF (2000>=5) AND (2000<( 4 + __PBP__ * 2)) AND ( __PBP__ > 0 )
  23  0003              ;# 23 "d:\htk\mp3_test\utils.c" 1
  23  0003              	NOP
  23  0003              	ENDIF
  23  0003              ;# 23 "d:\htk\mp3_test\utils.c" 1
  23  0003              	IF (2000>=6) AND (2000<( 4 + __PBP__ * 2))  AND ( __PBP__ > 1 )
  23  0003              ;# 23 "d:\htk\mp3_test\utils.c" 1
  23  0003              	NOP
  23  0003              	ENDIF
  23  0003              ;# 23 "d:\htk\mp3_test\utils.c" 1
  23  0003              	IF (2000>=7) AND (2000<( 4 + __PBP__ * 2))  AND ( __PBP__ > 1 )
  23  0003              ;# 23 "d:\htk\mp3_test\utils.c" 1
  23  0003              	NOP
  23  0003              	ENDIF
  23  0003              ;# 23 "d:\htk\mp3_test\utils.c" 1
  23  0003              	IF (2000>=8) AND (2000<( 4 + __PBP__ * 2))  AND ( __PBP__ > 2 )
  23  0003              ;# 23 "d:\htk\mp3_test\utils.c" 1
  23  0003              	NOP
  23  0003              	ENDIF
  23  0003              ;# 23 "d:\htk\mp3_test\utils.c" 1
  23  0003              	IF (2000==9)  AND ( __PBP__ > 2 )
  23  0003              ;# 23 "d:\htk\mp3_test\utils.c" 1
  23  0003              	NOP
  23  0003              	ENDIF
  23  0003              ;# 23 "d:\htk\mp3_test\utils.c" 1
  23  0003              	IF (2000< ( 8 + __PBP__ * 2)) AND (2000>( 3 + __PBP__ * 2))
  23  0003              ;# 23 "d:\htk\mp3_test\utils.c" 1
  23  0003              	fcall __DELAY3 + ( 7 + __PBP__ * 2) -2000
  23  0003              	ENDIF
  23  0003              ;# 23 "d:\htk\mp3_test\utils.c" 1
  23  0003              	IF (2000< ( 0404h + __PBP__ * 2)) AND (2000>( 7 + __PBP__ * 2))
  23  0003              ;# 23 "d:\htk\mp3_test\utils.c" 1
  23  0003              	MOV A,(2000-( 4 + __PBP__ * 2))/4
  23  0003              ;# 23 "d:\htk\mp3_test\utils.c" 1
  23  0003              	fcall __DELAYX3 + 3 -((2000-( 4 + __PBP__ * 2)) MOD 4) 
  23  0003              	ENDIF
  23  0003              ;# 23 "d:\htk\mp3_test\utils.c" 1
  23  0003              	IF (2000< ( 040bh + __PBP__ * 2)) AND (2000> ( 0403h + __PBP__ * 2))
  23  0003              ;# 23 "d:\htk\mp3_test\utils.c" 1
  23  0003              	MOV A,0 
  23  0003              ;# 23 "d:\htk\mp3_test\utils.c" 1
  23  0003              	fcall __DELAYX6 + ( 040ah + __PBP__ * 2) -2000
  23  0003              	ENDIF
  23  0003              ;# 23 "d:\htk\mp3_test\utils.c" 1
  23  0003              	IF (2000 >= ( 040bh + __PBP__ * 2)) AND ((((2000-( 9 + __PBP__ * 2))%0402h)/4+1)>256)
  23  0003              ;# 23 "d:\htk\mp3_test\utils.c" 1
  23  0003              	MOV A,(2000-( 9 + __PBP__ * 2))/0402h
  23  0003              ;# 23 "d:\htk\mp3_test\utils.c" 1
  23  0003              	MOV _builtin_holtek_delay_2,A
  23  0003              ;# 23 "d:\htk\mp3_test\utils.c" 1
  23  0003              	MOV A,0
  23  0003              ;# 23 "d:\htk\mp3_test\utils.c" 1
  23  0003              	fcall __DELAYY5 +5- (((2000-( 9 + __PBP__ * 2))%0402h)%6) 
  23  0003              	ENDIF
  23  0003              ;# 23 "d:\htk\mp3_test\utils.c" 1
  23  0003              	IF (2000 >= ( 040bh + __PBP__ * 2)) AND ((((2000-( 9 + __PBP__ * 2))%0402h)/4+1)<=256)
  23  0003              ;# 23 "d:\htk\mp3_test\utils.c" 1
"File: utils.c       Assembler  Version HGASM0202      Page 5

  23  0003  0F01        	MOV A,(2000-( 9 + __PBP__ * 2))/0402h
  23  0004              ;# 23 "d:\htk\mp3_test\utils.c" 1
  23  0004  0080     E  	MOV _builtin_holtek_delay_2,A
  23  0005              ;# 23 "d:\htk\mp3_test\utils.c" 1
  23  0005  0FF0        	MOV A,((2000-( 9 + __PBP__ * 2))%0402h)/4+1
  23  0006              ;# 23 "d:\htk\mp3_test\utils.c" 1
  23  0006              	fcall __DELAYY3 +3-(((2000-( 9 + __PBP__ * 2))%0402h)%4) 
  23  000D              	ENDIF
  22  000D              #line 22 "d:\htk\mp3_test\utils.c"
  22  000D  1480     E  	inc rb
  22  000E  3D0A        	sz z
  22  000F  1480     E  	inc rc
  22  0010              _L11:
  22  0010  0700     E  	mov a,rb
  22  0011  0200     R  	sub a,_delay_ms_2[0]
  22  0012  0700     E  	mov a,rc
  22  0013  1200     R  	sbc a,_delay_ms_2[1]
  22  0014  3B0A        	snz cz
  22  0015  2800     R  	jmp _L12
  22  0016  0003        	ret
  22  0017              _delay_ms endp
  22  0017              #line 22 "d:\htk\mp3_test\utils.c"
  22  0017              #pragma debug scope 1 1
  22  0017              public _getkey2
  22  0017              #pragma debug scope 4 1
  29  0017              #line 29 "d:\htk\mp3_test\utils.c"
  29  0000              _getkey2 .section 'code'
  29  0000              _getkey2 proc
  29  0000  00              local _getkey2_2 db 1 dup(?)	; 0,1
  29  0000  0080     R  	mov _getkey2_2[0],a
  29  0001              #pragma debug variable 8 4 _getkey2_2+0 "raw_key"
  31  0001              #line 31 "d:\htk\mp3_test\utils.c"
  31  0001  0700     R  	mov a,_key_hold[0]
  31  0002  0080     E  	mov ra,a
  31  0003  0700     E  	mov a,ra
  31  0004  0A0F        	sub a,15
  31  0005  390A        	snz z
  31  0006  2800     R  	jmp _L14
  33  0007              #line 33 "d:\htk\mp3_test\utils.c"
  33  0007  1F00     R  	clr _hold[0]
  33  0008  2800     R  	jmp _L16
  33  0009              _L14:
  36  0009              #line 36 "d:\htk\mp3_test\utils.c"
  36  0009  0700     R  	mov a,_getkey2_2[0]
  36  000A  0200     E  	sub a,ra
  36  000B  390A        	snz z
  36  000C  2800     R  	jmp _L16
  37  000D              #line 37 "d:\htk\mp3_test\utils.c"
  37  000D  1080     R  	sz _hold[0]
  37  000E  2800     R  	jmp _L17
  38  000F              #line 38 "d:\htk\mp3_test\utils.c"
  38  000F  0F01        	mov a,1
  38  0010  0080     R  	mov _hold[0],a
  38  0011  2800     R  	jmp _L15
  38  0012              _L16:
  47  0012              #line 47 "d:\htk\mp3_test\utils.c"
  47  0012  0700     R  	mov a,_getkey2_2[0]
  47  0013  0080     R  	mov _key_hold[0],a
  47  0014              _L17:
  42  0014              #line 42 "d:\htk\mp3_test\utils.c"
"File: utils.c       Assembler  Version HGASM0202      Page 6

  42  0014  0F0F        	mov a,15
  42  0015  0080     R  	mov _getkey2_2[0],a
  42  0016              _L15:
  51  0016              #line 51 "d:\htk\mp3_test\utils.c"
  51  0016  0700     R  	mov a,_getkey2_2[0]
  51  0017  0080     E  	mov ra,a
  52  0018              #line 52 "d:\htk\mp3_test\utils.c"
  52  0018  0700     E  	mov a,ra
  52  0019  0003        	ret
  52  001A              _getkey2 endp
  52  001A              #line 52 "d:\htk\mp3_test\utils.c"
  52  001A              #pragma debug scope 1 1
  52  001A              public _getkey3
  52  001A              #pragma debug scope 5 1
  56  001A              #line 56 "d:\htk\mp3_test\utils.c"
  56  0000              _getkey3 .section 'code'
  56  0000              _getkey3 proc
  56  0000  00              local _getkey3_2 db 1 dup(?)	; 0,1
  56  0000  0080     E  	mov ra,a
  56  0001  0080     R  	mov _getkey3_2[0],a
  56  0002              #pragma debug variable 8 5 _getkey3_2+0 "raw_key"
  58  0002              #line 58 "d:\htk\mp3_test\utils.c"
  58  0002  0700     E  	mov a,ra
  58  0003  0A0F        	sub a,15
  58  0004  3D0A        	sz z
  58  0005  2800     R  	jmp _L19
  59  0006              #line 59 "d:\htk\mp3_test\utils.c"
  59  0006  1080     R  	sz _hold_3[0]
  59  0007  2800     R  	jmp _L20
  60  0008              #line 60 "d:\htk\mp3_test\utils.c"
  60  0008  0F01        	mov a,1
  60  0009  0080     R  	mov _hold_3[0],a
  61  000A              #line 61 "d:\htk\mp3_test\utils.c"
  61  000A  1F00     R  	clr _hold_times[0]
  61  000B  1F00     R  	clr _hold_times[1]
  62  000C              #line 62 "d:\htk\mp3_test\utils.c"
  62  000C  0700     R  	mov a,_getkey3_2[0]
  62  000D  0080     R  	mov _key_hold2[0],a
  62  000E  2800     R  	jmp _L28
  62  000F              _L20:
  64  000F              #line 64 "d:\htk\mp3_test\utils.c"
  64  000F  0700     R  	mov a,_hold_times[0]
  64  0010  0080     E  	mov rb,a
  64  0011  0700     R  	mov a,_hold_times[1]
  64  0012  0080     E  	mov rc,a
  64  0013  0700     E  	mov a,rb
  64  0014  0C32        	xor a,50
  64  0015  0500     E  	or a,rc
  64  0016  390A        	snz z
  64  0017  2800     R  	jmp _L22
  65  0018              #line 65 "d:\htk\mp3_test\utils.c"
  65  0018  0700     R  	mov a,_getkey3_2[0]
  65  0019  0080     E  	mov ra,a
  65  001A  1100     E  	swapa ra
  65  001B  0EF0        	and a,0f0h 
  65  001C  0080     E  	mov ra,a
  65  001D  2800     R  	jmp _L21
  65  001E              _L22:
  67  001E              #line 67 "d:\htk\mp3_test\utils.c"
  67  001E  0700     E  	mov a,rb
"File: utils.c       Assembler  Version HGASM0202      Page 7

  67  001F  0500     E  	or a,rc
  67  0020  390A        	snz z
  67  0021  2800     R  	jmp _L23
  68  0022              #line 68 "d:\htk\mp3_test\utils.c"
  68  0022  0700     R  	mov a,_key_hold2[0]
  68  0023  0200     R  	sub a,_getkey3_2[0]
  68  0024  3D0A        	sz z
  68  0025  2800     R  	jmp _L24
  68  0026              _L26:
  69  0026              #line 69 "d:\htk\mp3_test\utils.c"
  69  0026  1F00     R  	clr _hold_3[0]
  70  0027              #line 70 "d:\htk\mp3_test\utils.c"
  70  0027  1F00     R  	clr _hold_times[0]
  70  0028  1F00     R  	clr _hold_times[1]
  70  0029              _L28:
  90  0029              #line 90 "d:\htk\mp3_test\utils.c"
  90  0029  0F0F        	mov a,15
  90  002A  0080     E  	mov ra,a
  90  002B  2800     R  	jmp _L21
  90  002C              _L24:
  73  002C              #line 73 "d:\htk\mp3_test\utils.c"
  73  002C  0F01        	mov a,1
  73  002D  0080     R  	mov _hold_times[0],a
  73  002E  1F00     R  	clr _hold_times[1]
  73  002F  2800     R  	jmp _L28
  73  0030              _L23:
  76  0030              #line 76 "d:\htk\mp3_test\utils.c"
  76  0030  0F32        	mov a,50
  76  0031  0200     E  	sub a,rb
  76  0032  0F00        	mov a,0
  76  0033  1200     E  	sbc a,rc
  76  0034  380A        	snz c
  76  0035  2800     R  	jmp _L25
  76  0036  1480     E  	inc rb
  76  0037  3D0A        	sz z
  76  0038  1480     E  	inc rc
  76  0039              _L25:
  76  0039  0700     E  	mov a,rb
  76  003A  0080     R  	mov _hold_times[0],a
  76  003B  0700     E  	mov a,rc
  76  003C  0080     R  	mov _hold_times[1],a
  76  003D  2800     R  	jmp _L28
  76  003E              _L19:
  79  003E              #line 79 "d:\htk\mp3_test\utils.c"
  79  003E  1E00     R  	snz _hold_3[0]
  79  003F  2800     R  	jmp _L26
  79  0040  0F31        	mov a,49
  79  0041  0200     R  	sub a,_hold_times[0]
  79  0042  0F00        	mov a,0
  79  0043  1200     R  	sbc a,_hold_times[1]
  79  0044  380A        	snz c
  79  0045  2800     R  	jmp _L26
  80  0046              #line 80 "d:\htk\mp3_test\utils.c"
  80  0046  1F00     R  	clr _hold_3[0]
  81  0047              #line 81 "d:\htk\mp3_test\utils.c"
  81  0047  1F00     R  	clr _hold_times[0]
  81  0048  1F00     R  	clr _hold_times[1]
  82  0049              #line 82 "d:\htk\mp3_test\utils.c"
  82  0049  0700     R  	mov a,_key_hold2[0]
  82  004A  0080     E  	mov ra,a
"File: utils.c       Assembler  Version HGASM0202      Page 8

  82  004B              _L21:
  91  004B              #line 91 "d:\htk\mp3_test\utils.c"
  91  004B  0700     E  	mov a,ra
  91  004C  0003        	ret
  91  004D              _getkey3 endp
  91  004D              #line 91 "d:\htk\mp3_test\utils.c"
  91  004D              #pragma debug scope 1 1
  91  004D              public _getkey4
  91  004D              #pragma debug scope 6 1
  94  004D              #line 94 "d:\htk\mp3_test\utils.c"
  94  0000              _getkey4 .section 'code'
  94  0000              _getkey4 proc
  94  0000              public _getkey4_2
  94  0000  0002[           local _getkey4_2 db 2 dup(?)	; 2,0
            00
            ]
  94  0002              #pragma debug variable 12 6 _getkey4_2+0 "raw_key"
  96  0002              #line 96 "d:\htk\mp3_test\utils.c"
  96  0000  0700     R  	mov a,_getkey4_2[0]
  96  0001  0080     E  	mov ra,a
  96  0002  0700     R  	mov a,_hold_4[0]
  96  0003  0080     E  	mov rb,a
  96  0004  0700     R  	mov a,_hold_4[1]
  96  0005  0080     E  	mov rc,a
  97  0006              #line 97 "d:\htk\mp3_test\utils.c"
  97  0006  0700     E  	mov a,ra
  97  0007  0A0F        	sub a,15
  97  0008  3D0A        	sz z
  97  0009  2800     R  	jmp _L30
  98  000A              #line 98 "d:\htk\mp3_test\utils.c"
  98  000A  0700     E  	mov a,rb
  98  000B  0500     E  	or a,rc
  98  000C  390A        	snz z
  98  000D  2800     R  	jmp _L31
  99  000E              #line 99 "d:\htk\mp3_test\utils.c"
  99  000E  0F01        	mov a,1
  99  000F  0080     R  	mov _hold_4[0],a
  99  0010  1F00     R  	clr _hold_4[1]
 100  0011              #line 100 "d:\htk\mp3_test\utils.c"
 100  0011  1F00     R  	clr _hold_times_4[0]
 100  0012  1F00     R  	clr _hold_times_4[1]
 101  0013              #line 101 "d:\htk\mp3_test\utils.c"
 101  0013  0700     R  	mov a,_getkey4_2[0]
 101  0014  0080     E  	mov ra,a
 101  0015  0700     R  	mov a,_getkey4_2[1]
 101  0016  0080     E  	mov rb,a
 101  0017  0FFF        	mov a,255  
 101  0018  0680     E  	andm a,ra  
 101  0019  0F00        	mov a,0  
 101  001A  0680     E  	andm a,rb
 101  001B  0700     E  	mov a,ra
 101  001C  0080     R  	mov _key_hold4[0],a
 101  001D  0700     E  	mov a,rb
 101  001E  0080     R  	mov _key_hold4[1],a
 101  001F  2800     R  	jmp _L44
 101  0020              _L31:
 103  0020              #line 103 "d:\htk\mp3_test\utils.c"
 103  0020  0700     E  	mov a,rb
 103  0021  0C02        	xor a,2
 103  0022  0500     E  	or a,rc
"File: utils.c       Assembler  Version HGASM0202      Page 9

 103  0023  390A        	snz z
 103  0024  2800     R  	jmp _L33
 104  0025              #line 104 "d:\htk\mp3_test\utils.c"
 104  0025  0700     R  	mov a,_getkey4_2[0]
 104  0026  0080     E  	mov rb,a
 104  0027  0700     R  	mov a,_getkey4_2[1]
 104  0028  0080     E  	mov rc,a
 104  0029  0FFF        	mov a,255  
 104  002A  0680     E  	andm a,rb  
 104  002B  0F00        	mov a,0  
 104  002C  0680     E  	andm a,rc
 104  002D  0700     R  	mov a,_key_hold4[0]
 104  002E  0200     E  	sub a,rb
 104  002F  0700     R  	mov a,_key_hold4[1]
 104  0030  1200     E  	sbc a,rc
 104  0031  3B0A        	snz cz
 104  0032  2800     R  	jmp _L44
 107  0033              #line 107 "d:\htk\mp3_test\utils.c"
 107  0033  0F03        	mov a,3
 107  0034  0080     R  	mov _hold_4[0],a
 107  0035  1F00     R  	clr _hold_4[1]
 107  0036              _L44:
 146  0036              #line 146 "d:\htk\mp3_test\utils.c"
 146  0036  0F0F        	mov a,15
 146  0037  0080     E  	mov ra,a
 146  0038  2800     R  	jmp _L32
 146  0039              _L33:
 109  0039              #line 109 "d:\htk\mp3_test\utils.c"
 109  0039  0700     E  	mov a,rb
 109  003A  0C03        	xor a,3
 109  003B  0500     E  	or a,rc
 109  003C  390A        	snz z
 109  003D  2800     R  	jmp _L35
 110  003E              #line 110 "d:\htk\mp3_test\utils.c"
 110  003E  1F00     R  	clr _hold_4[0]
 110  003F  1F00     R  	clr _hold_4[1]
 111  0040              #line 111 "d:\htk\mp3_test\utils.c"
 111  0040  0700     R  	mov a,_key_hold4[0]
 111  0041  0080     E  	mov ra,a
 111  0042  1100     E  	swapa ra
 111  0043  1885        	rl acc
 111  0044  0EE0        	and a,0e0h
 111  0045  0080     E  	mov ra,a
 111  0046  2800     R  	jmp _L32
 111  0047              _L35:
 113  0047              #line 113 "d:\htk\mp3_test\utils.c"
 113  0047  0700     R  	mov a,_hold_times_4[0]
 113  0048  0080     E  	mov rb,a
 113  0049  0700     R  	mov a,_hold_times_4[1]
 113  004A  0080     E  	mov rc,a
 113  004B  0700     E  	mov a,rb
 113  004C  0C32        	xor a,50
 113  004D  0500     E  	or a,rc
 113  004E  390A        	snz z
 113  004F  2800     R  	jmp _L36
 114  0050              #line 114 "d:\htk\mp3_test\utils.c"
 114  0050  1100     E  	swapa ra
 114  0051  0EF0        	and a,0f0h 
 114  0052  0080     E  	mov ra,a
 114  0053  2800     R  	jmp _L32
"File: utils.c       Assembler  Version HGASM0202      Page 10

 114  0054              _L36:
 116  0054              #line 116 "d:\htk\mp3_test\utils.c"
 116  0054  0700     E  	mov a,rb
 116  0055  0500     E  	or a,rc
 116  0056  390A        	snz z
 116  0057  2800     R  	jmp _L37
 117  0058              #line 117 "d:\htk\mp3_test\utils.c"
 117  0058  0700     R  	mov a,_getkey4_2[0]
 117  0059  0080     E  	mov rb,a
 117  005A  0700     R  	mov a,_getkey4_2[1]
 117  005B  0080     E  	mov rc,a
 117  005C  0FFF        	mov a,255  
 117  005D  0680     E  	andm a,rb  
 117  005E  0F00        	mov a,0  
 117  005F  0680     E  	andm a,rc
 117  0060  0700     R  	mov a,_key_hold4[0]
 117  0061  0200     E  	sub a,rb
 117  0062  0700     R  	mov a,_key_hold4[1]
 117  0063  1200     E  	sbc a,rc
 117  0064  3F0A        	sz cz
 117  0065  2800     R  	jmp _L38
 117  0066              _L41:
 118  0066              #line 118 "d:\htk\mp3_test\utils.c"
 118  0066  1F00     R  	clr _hold_4[0]
 118  0067  1F00     R  	clr _hold_4[1]
 119  0068              #line 119 "d:\htk\mp3_test\utils.c"
 119  0068  1F00     R  	clr _hold_times_4[0]
 119  0069  1F00     R  	clr _hold_times_4[1]
 119  006A  2800     R  	jmp _L44
 119  006B              _L38:
 122  006B              #line 122 "d:\htk\mp3_test\utils.c"
 122  006B  0F01        	mov a,1
 122  006C  0080     R  	mov _hold_times_4[0],a
 122  006D  1F00     R  	clr _hold_times_4[1]
 122  006E  2800     R  	jmp _L44
 122  006F              _L37:
 125  006F              #line 125 "d:\htk\mp3_test\utils.c"
 125  006F  0F32        	mov a,50
 125  0070  0200     E  	sub a,rb
 125  0071  0F00        	mov a,0
 125  0072  1200     E  	sbc a,rc
 125  0073  380A        	snz c
 125  0074  2800     R  	jmp _L39
 125  0075  1480     E  	inc rb
 125  0076  3D0A        	sz z
 125  0077  1480     E  	inc rc
 125  0078              _L39:
 125  0078  0700     E  	mov a,rb
 125  0079  0080     R  	mov _hold_times_4[0],a
 125  007A  0700     E  	mov a,rc
 125  007B  0080     R  	mov _hold_times_4[1],a
 125  007C  2800     R  	jmp _L44
 125  007D              _L30:
 128  007D              #line 128 "d:\htk\mp3_test\utils.c"
 128  007D  0700     E  	mov a,rb
 128  007E  0C01        	xor a,1
 128  007F  0500     E  	or a,rc
 128  0080  390A        	snz z
 128  0081  2800     R  	jmp _L40
 128  0082  0F31        	mov a,49
"File: utils.c       Assembler  Version HGASM0202      Page 11

 128  0083  0200     R  	sub a,_hold_times_4[0]
 128  0084  0F00        	mov a,0
 128  0085  1200     R  	sbc a,_hold_times_4[1]
 128  0086  380A        	snz c
 128  0087  2800     R  	jmp _L41
 129  0088              #line 129 "d:\htk\mp3_test\utils.c"
 129  0088  0F02        	mov a,2
 129  0089  0080     R  	mov _hold_4[0],a
 129  008A  1F00     R  	clr _hold_4[1]
 130  008B              #line 130 "d:\htk\mp3_test\utils.c"
 130  008B  1F00     R  	clr _hold_times_4[0]
 130  008C  1F00     R  	clr _hold_times_4[1]
 131  008D              #line 131 "d:\htk\mp3_test\utils.c"
 131  008D  1F00     R  	clr ___release_count_3023[0]
 131  008E  1F00     R  	clr ___release_count_3023[1]
 131  008F  2800     R  	jmp _L44
 131  0090              _L40:
 134  0090              #line 134 "d:\htk\mp3_test\utils.c"
 134  0090  0700     E  	mov a,rb
 134  0091  0C02        	xor a,2
 134  0092  0500     E  	or a,rc
 134  0093  390A        	snz z
 134  0094  2800     R  	jmp _L41
 135  0095              #line 135 "d:\htk\mp3_test\utils.c"
 135  0095  0F01        	mov a,1
 135  0096  0300     R  	add a,___release_count_3023[0]
 135  0097  0080     E  	mov rb,a
 135  0098  0F00        	mov a,0
 135  0099  1300     R  	adc a,___release_count_3023[1]
 135  009A  0080     E  	mov rc,a
 135  009B  0700     E  	mov a,rb
 135  009C  0080     R  	mov ___release_count_3023[0],a
 135  009D  0700     E  	mov a,rc
 135  009E  0080     R  	mov ___release_count_3023[1],a
 135  009F  0F05        	mov a,5
 135  00A0  0200     E  	sub a,rb
 135  00A1  0F00        	mov a,0
 135  00A2  1200     E  	sbc a,rc
 135  00A3  3C0A        	sz c
 135  00A4  2800     R  	jmp _L44
 136  00A5              #line 136 "d:\htk\mp3_test\utils.c"
 136  00A5  1F00     R  	clr _hold_4[0]
 136  00A6  1F00     R  	clr _hold_4[1]
 137  00A7              #line 137 "d:\htk\mp3_test\utils.c"
 137  00A7  0700     R  	mov a,_key_hold4[0]
 137  00A8  0080     E  	mov ra,a
 137  00A9              _L32:
 147  00A9              #line 147 "d:\htk\mp3_test\utils.c"
 147  00A9  0700     E  	mov a,ra
 147  00AA  0003        	ret
 147  00AB              _getkey4 endp
 147  00AB              #line 147 "d:\htk\mp3_test\utils.c"
 147  00AB              #pragma debug scope 1 1
 147  0000              @HCCINIT	.section 'data'
  95  0000              #line 95 "d:\htk\mp3_test\utils.c"
  95  0000              @HCCINIT___release_count_3023 .section 'data'
  95  0000              ___release_count_3023 label byte
  95  0000              #pragma debug variable 12 6 ___release_count_3023 "release_count"
  95  0000              	db 0
  95  0000              @ROMDATA_BASE .section inpage 'code'
"File: utils.c       Assembler  Version HGASM0202      Page 12

  95  0000              	db 0
  95  0001              @HCCINIT___release_count_3023 .section 'data'
  95  0001              	db 0
  95  0001              @ROMDATA_BASE .section inpage 'code'
  95  0001              	db 0
  95  0002              @HCCINIT___release_count_3023 .section 'data'
  95  0002              public _hold_times_4
  92  0002              #line 92 "d:\htk\mp3_test\utils.c"
  92  0000              @HCCINIT_hold_times_4 .section 'data'
  92  0000              _hold_times_4 label byte
  92  0000              #pragma debug variable 12 1 _hold_times_4 "hold_times_4"
  92  0000              	db 0
  92  0001              @ROMDATA_BASE .section inpage 'code'
  92  0001              	db 0
  92  0001              @HCCINIT_hold_times_4 .section 'data'
  92  0001              	db 0
  92  0002              @ROMDATA_BASE .section inpage 'code'
  92  0002              	db 0
  92  0002              @HCCINIT_hold_times_4 .section 'data'
  92  0002              public _hold_4
  92  0002              #line 92 "d:\htk\mp3_test\utils.c"
  92  0000              @HCCINIT_hold_4 .section 'data'
  92  0000              _hold_4 label byte
  92  0000              #pragma debug variable 12 1 _hold_4 "hold_4"
  92  0000              	db 0
  92  0002              @ROMDATA_BASE .section inpage 'code'
  92  0002              	db 0
  92  0001              @HCCINIT_hold_4 .section 'data'
  92  0001              	db 0
  92  0003              @ROMDATA_BASE .section inpage 'code'
  92  0003              	db 0
  92  0002              @HCCINIT_hold_4 .section 'data'
  92  0002              public _key_hold4
  92  0002              #line 92 "d:\htk\mp3_test\utils.c"
  92  0000              @HCCINIT_key_hold4 .section 'data'
  92  0000              _key_hold4 label byte
  92  0000              #pragma debug variable 12 1 _key_hold4 "key_hold4"
  92  0000              	dw 15
  92  0003              @ROMDATA_BASE .section inpage 'code'
  92  0003  000F        	dc 15
  92  0002              @HCCINIT_key_hold4 .section 'data'
  92  0002              public _hold_times
  54  0002              #line 54 "d:\htk\mp3_test\utils.c"
  54  0000              @HCCINIT_hold_times .section 'data'
  54  0000              _hold_times label byte
  54  0000              #pragma debug variable 12 1 _hold_times "hold_times"
  54  0000              	db 0
  54  0004              @ROMDATA_BASE .section inpage 'code'
  54  0004              	db 0
  54  0001              @HCCINIT_hold_times .section 'data'
  54  0001              	db 0
  54  0005              @ROMDATA_BASE .section inpage 'code'
  54  0005              	db 0
  54  0002              @HCCINIT_hold_times .section 'data'
  54  0002              public _hold_3
  27  0002              #line 27 "d:\htk\mp3_test\utils.c"
  27  0000              @HCCINIT_hold_3 .section 'data'
  27  0000              _hold_3 label byte
  27  0000              #pragma debug variable 7 1 _hold_3 "hold_3"
  27  0000              	db 0
"File: utils.c       Assembler  Version HGASM0202      Page 13

  27  0005              @ROMDATA_BASE .section inpage 'code'
  27  0005              	db 0
  27  0001              @HCCINIT_hold_3 .section 'data'
  27  0001              public _hold
  27  0001              #line 27 "d:\htk\mp3_test\utils.c"
  27  0000              @HCCINIT_hold .section 'data'
  27  0000              _hold label byte
  27  0000              #pragma debug variable 7 1 _hold "hold"
  27  0000              	db 0
  27  0006              @ROMDATA_BASE .section inpage 'code'
  27  0006              	db 0
  27  0001              @HCCINIT_hold .section 'data'
  27  0001              public _key_hold2
  26  0001              #line 26 "d:\htk\mp3_test\utils.c"
  26  0000              @HCCINIT_key_hold2 .section 'data'
  26  0000              _key_hold2 label byte
  26  0000              #pragma debug variable 8 1 _key_hold2 "key_hold2"
  26  0000              	db 15
  26  0006              @ROMDATA_BASE .section inpage 'code'
  26  0006              	db 15
  26  0001              @HCCINIT_key_hold2 .section 'data'
  26  0001              public _key_hold
  26  0001              #line 26 "d:\htk\mp3_test\utils.c"
  26  0000              @HCCINIT_key_hold .section 'data'
  26  0000              _key_hold label byte
  26  0000              #pragma debug variable 8 1 _key_hold "key_hold"
  26  0000              	db 15
  26  0007              @ROMDATA_BASE .section inpage 'code'
  26  0007              	db 15
  26  0001              @HCCINIT_key_hold .section 'data'
   2  0001              #line 2 "d:\htk\mp3_test\utils.c"
   2  0000              @HCCINIT_test .section 'data'
   2  0000              _test label byte
   2  0000              #pragma debug variable 7 1 _test "test"
   2  0000              	db 0
   2  0007              @ROMDATA_BASE .section inpage 'code'
   2  0007              	db 0
   2  0001              @HCCINIT_test .section 'data'
   2  0001              #pragma debug struct_end
   2  0001              #pragma debug struct_end
   2  0001              #pragma debug union_end
   2  0001              #pragma debug union_end
   2  0001              #pragma debug variable 43 1 ___pg "__pg" 1
   2  0001              
   2  0001              ; 
   2  0001              ; Generated by holtek-gcc v3.19, Thu Aug 15 10:10:05 2024
   2  0001              ; Rebuild 718
   2  0001              ; end of file


        0 Errors, 0